(dp1
S'output'
p2
S"<type 'exceptions.AttributeError'> "
p3
sS'layer'
p4
S'/home/ArsenalSystem/web2py/applications/model_two/views/default/index.html'
p5
sS'code'
p6
S'response.write(\'<!DOCTYPE html>\\n<!--[if (gt IE 9)|!(IE)]><!--> <html class="no-js" lang="\', escape=False)\nresponse.write(T.accepted_language or \'en\')\nresponse.write(\'"> <!--<![endif]-->\\n  <head>\\n    <meta charset="utf-8">\\n    <!-- www.phpied.com/conditional-comments-block-downloads/ -->\\n    <!-- Always force latest IE rendering engine\\n         (even in intranet) & Chrome Frame\\n         Remove this if you use the .htaccess -->\\n    <meta http-equiv="X-UA-Compatible" content="IE=edge\', escape=False)\nresponse.write(not request.is_local and \',chrome=1\' or \'\')\nresponse.write(\'">\\n    <!--  Mobile Viewport Fix\\n          j.mp/mobileviewport & davidbcalhoun.com/2010/viewport-metatag\\n          device-width: Occupy full width of the screen in its current orientation\\n          initial-scale = 1.0 retains dimensions instead of zooming out if page height > device height\\n          user-scalable = yes allows the user to zoom in -->\\n    <meta name="viewport" content="width=device-width, initial-scale=1.0">\\n    <title>\', escape=False)\nresponse.write(response.title or request.application)\nresponse.write(\'</title>\\n    <!-- http://dev.w3.org/html5/markup/meta.name.html -->\\n    <meta name="application-name" content="\', escape=False)\nresponse.write(request.application)\nresponse.write(\'">\\n    <!-- Speaking of Google, don\\\'t forget to set your site up:\\n         http://google.com/webmasters -->\\n    <meta name="google-site-verification" content="">\\n    <!-- include stylesheets -->\\n    <link rel="stylesheet" href="https://cdnjs.cloudflare.com/ajax/libs/font-awesome/4.7.0/css/font-awesome.min.css"/>\\n    <link rel="stylesheet" href="\', escape=False)\nresponse.write(URL(\'static\',\'css/bootstrap.min.css\'))\nresponse.write(\'"/>\\n    <link rel="stylesheet" href="\', escape=False)\nresponse.write(URL(\'static\',\'css/web2py-bootstrap4.css\'))\nresponse.write(\'"/>\\n    <link rel="shortcut icon" href="\', escape=False)\nresponse.write(URL(\'static\',\'images/favicon.ico\'))\nresponse.write(\'" type="image/x-icon">\\n    <link rel="apple-touch-icon" href="\', escape=False)\nresponse.write(URL(\'static\',\'images/favicon.png\'))\nresponse.write(\'">\\n    <!-- All JavaScript at the bottom, except for Modernizr which enables\\n         HTML5 elements & feature detects -->\\n    <script src="\', escape=False)\nresponse.write(URL(\'static\',\'js/modernizr-2.8.3.min.js\'))\nresponse.write(\'"></script>\\n    <!-- Favicons -->\\n    \', escape=False)\nresponse.write(\'<script type="text/javascript"><!--\\n    // These variables are used by the web2py_ajax_init function in web2py_ajax.js (which is loaded below).\\n    \', escape=False)\nresponse.write(ASSIGNJS(\nw2p_ajax_confirm_message = T(\'Are you sure you want to delete this object?\'),\nw2p_ajax_disable_with_message = T(\'Working...\'),\nw2p_ajax_date_format = T(\'%Y-%m-%d\'),\nw2p_ajax_datetime_format = T(\'%Y-%m-%d %H:%M:%S\'),\najax_error_500 = T.M(\'An error occured, please [[reload %s]] the page\') % URL(args=request.args, vars=request.get_vars)\n))\nresponse.write(\'\\n    //--></script>\\n\', escape=False)\nresponse.files.insert(0,URL(\'static\',\'js/jquery.js\'))\nresponse.files.insert(1,URL(\'static\',\'css/calendar.css\'))\nresponse.files.insert(2,URL(\'static\',\'js/calendar.js\'))\nresponse.files.insert(3,URL(\'static\',\'js/web2py.js\'))\nresponse.include_meta()\nresponse.include_files()\nresponse.write(\'\\n\', escape=False)\nresponse.write(\' <!-- this includes jquery.js, calendar.js/.css and web2py.js -->\\n    \', escape=False)\nresponse.write(\'\\n  </head>\\n  <body>\\n    <div class="w2p_flash alert alert-dismissable">\', escape=False)\nresponse.write(response.flash or \'\')\nresponse.write(\'</div>\\n    <!-- Navbar ======================================= -->\\n    <nav class="navbar navbar-light navbar-expand-md bg-faded bg-dark navbar-dark justify-content-center">\\n       <a href="#" class="navbar-brand d-flex w-50 mr-auto">Sistema</a>\\n       <button class="navbar-toggler" type="button" data-toggle="collapse" data-target="#navbarNavDropdown" aria-controls="navbarNavDropdown" aria-expanded="false" aria-label="Toggle navigation">\\n         <span class="navbar-toggler-icon"></span>\\n       </button>\\n       <div class="navbar-collapse collapse w-100" id="navbarNavDropdown">\\n         <ul class="navbar-nav w-100 justify-content-center">\\n          \', escape=False)\nfor _item in response.menu or []:\n    response.write(\'\\n          \', escape=False)\n    if len(_item)<4 or not _item[3]:\n        response.write(\'\\n          <li class="nav-item \', escape=False)\n        if _item[1]:\n            response.write(\'active\', escape=False)\n            pass\n        response.write(\'">\\n            <a class="nav-link" href="\', escape=False)\n        response.write(_item[2])\n        response.write(\'">\', escape=False)\n        response.write(_item[0])\n        response.write(\'</a>\\n          </li>\\n          \', escape=False)\n    else:\n        response.write(\'\\n          <li class="nav-item dropdown">\\n            <a class="nav-link dropdown-toggle" href="\', escape=False)\n        response.write(_item[2])\n        response.write(\'" data-toggle="dropdown" aria-haspopup="true" aria-expanded="false">\', escape=False)\n        response.write(_item[0])\n        response.write(\'</a>\\n            <div class="dropdown-menu">\\n              \', escape=False)\n        for _subitem in _item[3]:\n            response.write(\'\\n              <a class="dropdown-item" href="\', escape=False)\n            response.write(_subitem[2])\n            response.write(\'">\', escape=False)\n            response.write(_subitem[0])\n            response.write(\'</a>\\n              \', escape=False)\n            pass\n        response.write(\'\\n            </div>\\n          </li>\\n          \', escape=False)\n        pass\n    response.write(\'\\n          \', escape=False)\n    pass\nresponse.write(\'\\n        </ul>\\n        \', escape=False)\nif \'auth\' in globals():\n    response.write(\'\\n        <ul class="nav navbar-nav ml-auto w-100 justify-content-end">\\n          <li class="nav-item dropdown">\\n            <a class="nav-link dropdown-toggle" href="#" data-toggle="dropdown" aria-haspopup="true" aria-expanded="false">\\n              \', escape=False)\n    if auth.user:\n        response.write(auth.user.first_name)\n    else:\n        response.write(\'LOGIN\', escape=False)\n        pass\n    response.write(\'\\n            </a>\\n            <div class="dropdown-menu dropdown-menu-right">\\n              \', escape=False)\n    if auth.user:\n        response.write(\'\\n              <a class="dropdown-item" href="\', escape=False)\n        response.write(URL(\'default\',\'user/profile\'))\n        response.write(\'">\', escape=False)\n        response.write(T(\'Profile\'))\n        response.write(\'</a>\\n              \', escape=False)\n        if \'change_password\' not in auth.settings.actions_disabled:\n            response.write(\'\\n              <a class="dropdown-item" href="\', escape=False)\n            response.write(URL(\'default\',\'user/change_password\'))\n            response.write(\'">\', escape=False)\n            response.write(T(\'Change Password\'))\n            response.write(\'</a>\\n              \', escape=False)\n            pass\n        response.write(\'\\n              <a class="dropdown-item" href="\', escape=False)\n        response.write(URL(\'default\',\'user/logout\'))\n        response.write(\'">\', escape=False)\n        response.write(T(\'Logout\'))\n        response.write(\'</a>\\n              \', escape=False)\n    else:\n        response.write(\'\\n              <a class="dropdown-item" href="\', escape=False)\n        response.write(URL(\'default\',\'user/login\'))\n        response.write(\'">\', escape=False)\n        response.write(T(\'Login\'))\n        response.write(\'</a>\\n              \', escape=False)\n        if \'register\' not in auth.settings.actions_disabled:\n            response.write(\'\\n              <a class="dropdown-item" href="\', escape=False)\n            response.write(URL(\'default\',\'user/register\'))\n            response.write(\'">\', escape=False)\n            response.write(T(\'Sign up\'))\n            response.write(\'</a>\\n              \', escape=False)\n            pass\n        response.write(\'\\n              \', escape=False)\n        if \'retrieve_password\' not in auth.settings.actions_disabled:\n            response.write(\'\\n              <a class="dropdown-item" href="\', escape=False)\n            response.write(URL(\'default\',\'user/retrieve_password\'))\n            response.write(\'">\', escape=False)\n            response.write(T(\'Lost Password\'))\n            response.write(\'</a>\\n              \', escape=False)\n            pass\n        response.write(\'\\n              \', escape=False)\n        pass\n    response.write(\'\\n            </div>\\n          </li>\\n        </ul>\\n        \', escape=False)\n    pass\nresponse.write(\'\\n      </div>\\n    </nav>\\n\\n    <!-- Masthead ===================================== -->\\n    \', escape=False)\nresponse.write(\'\\n    \', escape=False)\nresponse.write(\'\\n    <!-- Main ========================================= -->\\n    <!-- Begin page content -->\\n    <div class="container-fluid main-container">\\n      \', escape=False)\nresponse.write(\'\\n<div class="py-5" >\\n    <div class="container">\\n      <div class="row">\\n        <div class="px-5 col-md-8 text-center mx-auto">\\n          <h3 class="text-primary display-4"> <b>\', escape=False)\nresponse.write(cab.titulo)\nresponse.write(\'</b> </h3>\\n          <h2 class="my-3">\', escape=False)\nresponse.write(cab.subtitulo)\nresponse.write(\'.</h2>\\n          <p class="mb-3">I throw myself down among the tall grass by the trickling stream; and, as I lie close to the earth, a thousand unknown plants are noticed by me: when I hear the buzz of the little world among the stalks, and grow familiar with the countless indescribable.</p> \\n            <a href="\', escape=False)\nresponse.write(URL(\'acs_sistema\',\'index\'))\nresponse.write(\'" class="btn btn-primary">Acessar</a>\\n        </div>\\n      </div>\\n    </div>\\n  </div>\\n  <div class="py-5">\\n    <div class="container">\\n      <div class="row">\\n        <div class="col-md-12">\\n          <div class="row">\\n            <div class="col-md-4 col-lg-3 order-1 order-md-1 p-0"> <img class="img-fluid d-block" src="https://static.pingendo.com/img-placeholder-3.svg"> </div>\\n            <div class="d-flex flex-column justify-content-center p-3 col-md-8 offset-lg-1 align-items-start order-2 order-md-2">\\n              <h3>A wonderful serenity</h3>\\n              <p class="mb-3">I should be incapable of drawing a single stroke at the present moment; and yet I feel that I never was a greater artist than now. When, while the lovely valley teems with vapour around me, and the meridian sun strikes the upper surface of the impenetrable foliage of my trees, and but a few stray gleams steal into the inner sanctuary.</p> <a class="btn btn-primary" href="#">Let\\\'s GO</a>\\n            </div>\\n          </div>\\n        </div>\\n      </div>\\n    </div>\\n  </div>\\n  <div class="py-5">\\n    <div class="container">\\n      <div class="row">\\n        <div class="col-md-12">\\n          <div class="row">\\n            <div class="d-flex flex-column justify-content-center p-3 col-md-8 offset-lg-1 align-items-start order-2 order-md-1">\\n              <h3>A wonderful serenity</h3>\\n              <p class="mb-3">I should be incapable of drawing a single stroke at the present moment; and yet I feel that I never was a greater artist than now. When, while the lovely valley teems with vapour around me, and the meridian sun strikes the upper surface of the impenetrable foliage of my trees, and but a few stray gleams steal into the inner sanctuary.</p> <a class="btn btn-primary" href="#">Let\\\'s GO</a>\\n            </div>\\n            <div class="col-md-4 col-lg-3 order-1 order-md-2 p-0"> <img class="img-fluid d-block" src="https://static.pingendo.com/img-placeholder-3.svg" draggable="true"> </div>\\n          </div>\\n        </div>\\n      </div>\\n    </div>\\n  </div>\\n  <div class="py-3 text-center">\\n    <div class="container">\\n      <div class="row">\\n        <div class="col-md-12 text-center">\\n          <h1>Mirror of the infinite</h1>\\n        </div>\\n      </div>\\n      <div class="row justify-content-center">\\n        <div class="col-md-4 p-4"> <i class="d-block fa fa-circle fa-3x mb-2 text-muted"></i>\\n          <h4> <b>One</b> </h4>\\n          <p>A wonderful serenity has taken possession of my entire soul, like these sweet mornings of spring which I enjoy with my whole heart.</p>\\n        </div>\\n        <div class="col-md-4  p-4"> <i class="d-block fa fa-stop-circle-o fa-3x mb-2 text-muted"></i>\\n          <h4> <b>Two</b> </h4>\\n          <p>I am alone, and feel the charm of existence in this spot, which was created for the bliss of souls like mine. I am so happy, my dear friend.</p>\\n        </div>\\n        <div class="col-md-4  p-4"> <i class="d-block fa fa-circle-o fa-3x mb-2 text-muted"></i>\\n          <h4> <b>Three</b> </h4>\\n          <p>I feel that I never was a greater artist than now. When, while the lovely valley teems with vapour around me.</p>\\n        </div>\\n      </div>\\n    </div>\\n  </div>\\n  <div class="py-5 text-center">\\n    <div class="container">\\n      <div class="row">\\n        <div class="mx-auto col-md-12">\\n          <h1 class="mb-3">Desenvolvedores</h1>\\n        </div>\\n      </div>\\n      <div class="row">\\n        <div class="col-lg-3  p-4"> <img class="img-fluid d-block mb-3 mx-auto rounded-circle" src="https://static.pingendo.com/img-placeholder-1.svg" width="100" alt="Card image cap">\\n          <h4> <b>Johann</b> </h4>\\n          <p>CEO and founder</p>\\n          <p class="mb-0"> <i>"I throw myself down among the tall grass by the trickling"</i> </p>\\n        </div>\\n        <div class="col-lg-3 p-4"> <img class="img-fluid d-block mb-3 mx-auto rounded-circle" src="https://static.pingendo.com/img-placeholder-2.svg" width="100" alt="Card image cap">\\n          <h4> <b>Gregory</b> </h4>\\n          <p>Co-founder</p>\\n          <p class="mb-0"> <i>"As I lie close to the earth, a thousand unknown plants"</i> </p>\\n        </div>\\n        <div class="col-lg-3 p-4"> <img class="img-fluid d-block mb-3 mx-auto rounded-circle" src="https://static.pingendo.com/img-placeholder-3.svg" width="100">\\n          <h4> <b>James</b> </h4>\\n          <p>CFO</p>\\n          <p class="mb-0"> <i>"Then, my friend, when darkness overspreads my eyes"</i> </p>\\n        </div>\\n        <div class="col-lg-3  p-4"> <img class="img-fluid d-block mb-3 mx-auto rounded-circle" src="https://static.pingendo.com/img-placeholder-4.svg" width="100">\\n          <h4> <b>Amadeus</b> </h4>\\n          <p>CTO</p>\\n          <p class="mb-0"> <i>"Heaven and earth seem to dwell in my soul"</i> </p>\\n        </div>\\n      </div>\\n    </div>\\n  </div>\\n\', escape=False)\nresponse.write(\'\\n      \', escape=False)\nresponse.write(response.toolbar() if response.show_toolbar else \'\')\nresponse.write(\'\\n    </div>\\n\\n    \', escape=False)\nresponse.write(\' <!-- this is default footer -->\\n    <footer class="footer container-fluid">\\n      <div class="row">\\n        <div class="col-md-12">\\n          <div class="copyright pull-left">\', escape=False)\nresponse.write(T(\'Copyright\'))\nresponse.write(\' &#169; \', escape=False)\nresponse.write(request.now.year)\nresponse.write(\'</div>\\n          <div id="poweredBy" class="pull-right">\\n            <a href="#">Rogoberto Ribeiro</a>\\n          </div>\\n        </div>\\n      </div>\\n    </footer>\\n    \', escape=False)\nresponse.write(\'\\n    <!-- The javascript =============================== -->\\n    <script src="\', escape=False)\nresponse.write(URL(\'static\',\'js/bootstrap.bundle.min.js\'))\nresponse.write(\'"></script>\\n    <script src="\', escape=False)\nresponse.write(URL(\'static\',\'js/web2py-bootstrap4.js\'))\nresponse.write(\'"></script>\\n    \', escape=False)\nresponse.write(\'\\n    \', escape=False)\nif response.google_analytics_id:\n    response.write(\'\\n    <!-- Analytics ==================================== -->\\n    <script src="\', escape=False)\n    response.write(URL(\'static\',\'js/analytics.min.js\'))\n    response.write(\'"></script>\\n    <script type="text/javascript">\\n      analytics.initialize({\\n      \\\'Google Analytics\\\':{trackingId:\\\'\', escape=False)\n    response.write(response.google_analytics_id)\n    response.write("\'}\\n      });\\n    </script>\\n    ", escape=False)\n    pass\nresponse.write(\'\\n  </body>\\n</html>\\n\', escape=False)'
p7
sS'snapshot'
p8
(dp9
S'exception'
p10
(dp11
S'__getslice__'
p12
S"<method-wrapper '__getslice__' of exceptions.AttributeError object>"
p13
sS'__str__'
p14
S"<method-wrapper '__str__' of exceptions.AttributeError object>"
p15
sS'__reduce__'
p16
S'<built-in method __reduce__ of exceptions.AttributeError object>'
p17
sS'__dict__'
p18
S'{}'
p19
sS'message'
p20
S"''"
p21
sS'__sizeof__'
p22
S'<built-in method __sizeof__ of exceptions.AttributeError object>'
p23
sS'__init__'
p24
S"<method-wrapper '__init__' of exceptions.AttributeError object>"
p25
sS'__setattr__'
p26
S"<method-wrapper '__setattr__' of exceptions.AttributeError object>"
p27
sS'__reduce_ex__'
p28
S'<built-in method __reduce_ex__ of exceptions.AttributeError object>'
p29
sS'__new__'
p30
S'<built-in method __new__ of type object>'
p31
sS'__format__'
p32
S'<built-in method __format__ of exceptions.AttributeError object>'
p33
sS'__class__'
p34
S"<type 'exceptions.AttributeError'>"
p35
sS'__doc__'
p36
S"'Attribute not found.'"
p37
sS'__getitem__'
p38
S"<method-wrapper '__getitem__' of exceptions.AttributeError object>"
p39
sS'__setstate__'
p40
S'<built-in method __setstate__ of exceptions.AttributeError object>'
p41
sS'__getattribute__'
p42
S"<method-wrapper '__getattribute__' of exceptions.AttributeError object>"
p43
sS'args'
p44
S'()'
p45
sS'__subclasshook__'
p46
S'<built-in method __subclasshook__ of type object>'
p47
sS'__unicode__'
p48
S'<built-in method __unicode__ of exceptions.AttributeError object>'
p49
sS'__delattr__'
p50
S"<method-wrapper '__delattr__' of exceptions.AttributeError object>"
p51
sS'__repr__'
p52
S"<method-wrapper '__repr__' of exceptions.AttributeError object>"
p53
sS'__hash__'
p54
S"<method-wrapper '__hash__' of exceptions.AttributeError object>"
p55
ssS'evalue'
p56
S''
sS'request'
p57
cgluon.html
XML_unpickle
p58
(S'swa\x00\x00<div><table><tr><td style="font-weight:bold;vertical-align:top;">ajax</td><td style="vertical-align:top;">:</td><td><div>False</div></td></tr><tr><td style="font-weight:bold;vertical-align:top;">application</td><td style="vertical-align:top;">:</td><td><div>model_two</div></td></tr><tr><td style="font-weight:bold;vertical-align:top;">args</td><td style="vertical-align:top;">:</td><td><div><table></table></div></td></tr><tr><td style="font-weight:bold;vertical-align:top;">cid</td><td style="vertical-align:top;">:</td><td><div>None</div></td></tr><tr><td style="font-weight:bold;vertical-align:top;">client</td><td style="vertical-align:top;">:</td><td><div>177.37.224.149</div></td></tr><tr><td style="font-weight:bold;vertical-align:top;">controller</td><td style="vertical-align:top;">:</td><td><div>default</div></td></tr><tr><td style="font-weight:bold;vertical-align:top;">cookies</td><td style="vertical-align:top;">:</td><td><div><table><tr><td style="font-weight:bold;vertical-align:top;">session_id_admin</td><td style="vertical-align:top;">:</td><td><div>177.37.224.149-615521f5-6a34-470d-b38d-7b858ab2dd00<table><tr><td style="font-weight:bold;vertical-align:top;">comment</td><td style="vertical-align:top;">:</td><td><div></div></td></tr><tr><td style="font-weight:bold;vertical-align:top;">domain</td><td style="vertical-align:top;">:</td><td><div></div></td></tr><tr><td style="font-weight:bold;vertical-align:top;">expires</td><td style="vertical-align:top;">:</td><td><div></div></td></tr><tr><td style="font-weight:bold;vertical-align:top;">httponly</td><td style="vertical-align:top;">:</td><td><div></div></td></tr><tr><td style="font-weight:bold;vertical-align:top;">max-age</td><td style="vertical-align:top;">:</td><td><div></div></td></tr><tr><td style="font-weight:bold;vertical-align:top;">path</td><td style="vertical-align:top;">:</td><td><div></div></td></tr><tr><td style="font-weight:bold;vertical-align:top;">samesite</td><td style="vertical-align:top;">:</td><td><div></div></td></tr><tr><td style="font-weight:bold;vertical-align:top;">secure</td><td style="vertical-align:top;">:</td><td><div></div></td></tr><tr><td style="font-weight:bold;vertical-align:top;">version</td><td style="vertical-align:top;">:</td><td><div></div></td></tr></table></div></td></tr><tr><td style="font-weight:bold;vertical-align:top;">session_id_model_two</td><td style="vertical-align:top;">:</td><td><div>177.37.224.149-432641bb-c0b0-45cd-b264-db29b6286d90<table><tr><td style="font-weight:bold;vertical-align:top;">comment</td><td style="vertical-align:top;">:</td><td><div></div></td></tr><tr><td style="font-weight:bold;vertical-align:top;">domain</td><td style="vertical-align:top;">:</td><td><div></div></td></tr><tr><td style="font-weight:bold;vertical-align:top;">expires</td><td style="vertical-align:top;">:</td><td><div></div></td></tr><tr><td style="font-weight:bold;vertical-align:top;">httponly</td><td style="vertical-align:top;">:</td><td><div></div></td></tr><tr><td style="font-weight:bold;vertical-align:top;">max-age</td><td style="vertical-align:top;">:</td><td><div></div></td></tr><tr><td style="font-weight:bold;vertical-align:top;">path</td><td style="vertical-align:top;">:</td><td><div></div></td></tr><tr><td style="font-weight:bold;vertical-align:top;">samesite</td><td style="vertical-align:top;">:</td><td><div></div></td></tr><tr><td style="font-weight:bold;vertical-align:top;">secure</td><td style="vertical-align:top;">:</td><td><div></div></td></tr><tr><td style="font-weight:bold;vertical-align:top;">version</td><td style="vertical-align:top;">:</td><td><div></div></td></tr></table></div></td></tr><tr><td style="font-weight:bold;vertical-align:top;">session_id_prototipo01</td><td style="vertical-align:top;">:</td><td><div>177.37.224.149-717919b2-e69d-42da-9da4-e67325c0280a<table><tr><td style="font-weight:bold;vertical-align:top;">comment</td><td style="vertical-align:top;">:</td><td><div></div></td></tr><tr><td style="font-weight:bold;vertical-align:top;">domain</td><td style="vertical-align:top;">:</td><td><div></div></td></tr><tr><td style="font-weight:bold;vertical-align:top;">expires</td><td style="vertical-align:top;">:</td><td><div></div></td></tr><tr><td style="font-weight:bold;vertical-align:top;">httponly</td><td style="vertical-align:top;">:</td><td><div></div></td></tr><tr><td style="font-weight:bold;vertical-align:top;">max-age</td><td style="vertical-align:top;">:</td><td><div></div></td></tr><tr><td style="font-weight:bold;vertical-align:top;">path</td><td style="vertical-align:top;">:</td><td><div></div></td></tr><tr><td style="font-weight:bold;vertical-align:top;">samesite</td><td style="vertical-align:top;">:</td><td><div></div></td></tr><tr><td style="font-weight:bold;vertical-align:top;">secure</td><td style="vertical-align:top;">:</td><td><div></div></td></tr><tr><td style="font-weight:bold;vertical-align:top;">version</td><td style="vertical-align:top;">:</td><td><div></div></td></tr></table></div></td></tr></table></div></td></tr><tr><td style="font-weight:bold;vertical-align:top;">env</td><td style="vertical-align:top;">:</td><td><div><table><tr><td style="font-weight:bold;vertical-align:top;">CONTENT_LENGTH</td><td style="vertical-align:top;">:</td><td><div></div></td></tr><tr><td style="font-weight:bold;vertical-align:top;">CONTENT_TYPE</td><td style="vertical-align:top;">:</td><td><div></div></td></tr><tr><td style="font-weight:bold;vertical-align:top;">DOCUMENT_ROOT</td><td style="vertical-align:top;">:</td><td><div>/usr/local/openresty/nginx/html</div></td></tr><tr><td style="font-weight:bold;vertical-align:top;">HTTPS</td><td style="vertical-align:top;">:</td><td><div>on</div></td></tr><tr><td style="font-weight:bold;vertical-align:top;">HTTP_ACCEPT</td><td style="vertical-align:top;">:</td><td><div>text/html,application/xhtml+xml,application/xml;q=0.9,image/avif,image/webp,image/apng,*/*;q=0.8,application/signed-exchange;v=b3;q=0.9</div></td></tr><tr><td style="font-weight:bold;vertical-align:top;">HTTP_ACCEPT_ENCODING</td><td style="vertical-align:top;">:</td><td><div>gzip, deflate, br</div></td></tr><tr><td style="font-weight:bold;vertical-align:top;">HTTP_ACCEPT_LANGUAGE</td><td style="vertical-align:top;">:</td><td><div>pt-BR,pt;q=0.9,en-US;q=0.8,en;q=0.7</div></td></tr><tr><td style="font-weight:bold;vertical-align:top;">HTTP_CACHE_CONTROL</td><td style="vertical-align:top;">:</td><td><div>max-age=0</div></td></tr><tr><td style="font-weight:bold;vertical-align:top;">HTTP_CONNECTION</td><td style="vertical-align:top;">:</td><td><div>close</div></td></tr><tr><td style="font-weight:bold;vertical-align:top;">HTTP_COOKIE</td><td style="vertical-align:top;">:</td><td><div>_ga=GA1.2.1826198659.1609012104; session_id_prototipo01=177.37.224.149-717919b2-e69d-42da-9da4-e67325c0280a; session_id_admin=177.37.224.149-615521f5-6a34-470d-b38d-7b858ab2dd00; session_id_model_two=177.37.224.149-432641bb-c0b0-45cd-b264-db29b6286d90</div></td></tr><tr><td style="font-weight:bold;vertical-align:top;">HTTP_HOST</td><td style="vertical-align:top;">:</td><td><div>arsenalsystem.pythonanywhere.com</div></td></tr><tr><td style="font-weight:bold;vertical-align:top;">HTTP_REFERER</td><td style="vertical-align:top;">:</td><td><div>https://arsenalsystem.pythonanywhere.com/model_two/acs_sistema/index</div></td></tr><tr><td style="font-weight:bold;vertical-align:top;">HTTP_SEC_FETCH_DEST</td><td style="vertical-align:top;">:</td><td><div>document</div></td></tr><tr><td style="font-weight:bold;vertical-align:top;">HTTP_SEC_FETCH_MODE</td><td style="vertical-align:top;">:</td><td><div>navigate</div></td></tr><tr><td style="font-weight:bold;vertical-align:top;">HTTP_SEC_FETCH_SITE</td><td style="vertical-align:top;">:</td><td><div>same-origin</div></td></tr><tr><td style="font-weight:bold;vertical-align:top;">HTTP_SEC_FETCH_USER</td><td style="vertical-align:top;">:</td><td><div>?1</div></td></tr><tr><td style="font-weight:bold;vertical-align:top;">HTTP_UPGRADE_INSECURE_REQUESTS</td><td style="vertical-align:top;">:</td><td><div>1</div></td></tr><tr><td style="font-weight:bold;vertical-align:top;">HTTP_USER_AGENT</td><td style="vertical-align:top;">:</td><td><div>Mozilla/5.0 (Windows NT 6.1; Win64; x64) AppleWebKit/537.36 (KHTML, like Gecko) Chrome/88.0.4324.104 Safari/537.36</div></td></tr><tr><td style="font-weight:bold;vertical-align:top;">HTTP_X_FORWARDED_FOR</td><td style="vertical-align:top;">:</td><td><div>177.37.224.149</div></td></tr><tr><td style="font-weight:bold;vertical-align:top;">HTTP_X_REAL_IP</td><td style="vertical-align:top;">:</td><td><div>177.37.224.149</div></td></tr><tr><td style="font-weight:bold;vertical-align:top;">PATH_INFO</td><td style="vertical-align:top;">:</td><td><div>/model_two/default/index</div></td></tr><tr><td style="font-weight:bold;vertical-align:top;">QUERY_STRING</td><td style="vertical-align:top;">:</td><td><div></div></td></tr><tr><td style="font-weight:bold;vertical-align:top;">REMOTE_ADDR</td><td style="vertical-align:top;">:</td><td><div>10.0.0.124</div></td></tr><tr><td style="font-weight:bold;vertical-align:top;">REMOTE_PORT</td><td style="vertical-align:top;">:</td><td><div>49190</div></td></tr><tr><td style="font-weight:bold;vertical-align:top;">REQUEST_METHOD</td><td style="vertical-align:top;">:</td><td><div>GET</div></td></tr><tr><td style="font-weight:bold;vertical-align:top;">REQUEST_URI</td><td style="vertical-align:top;">:</td><td><div>/model_two/default/index</div></td></tr><tr><td style="font-weight:bold;vertical-align:top;">SCRIPT_NAME</td><td style="vertical-align:top;">:</td><td><div></div></td></tr><tr><td style="font-weight:bold;vertical-align:top;">SERVER_NAME</td><td style="vertical-align:top;">:</td><td><div>arsenalsystem.pythonanywhere.com</div></td></tr><tr><td style="font-weight:bold;vertical-align:top;">SERVER_PORT</td><td style="vertical-align:top;">:</td><td><div>443</div></td></tr><tr><td style="font-weight:bold;vertical-align:top;">SERVER_PROTOCOL</td><td style="vertical-align:top;">:</td><td><div>HTTP/1.1</div></td></tr><tr><td style="font-weight:bold;vertical-align:top;">app_folders</td><td style="vertical-align:top;">:</td><td><div>set([&#x27;/home/ArsenalSystem/web2py/applications/model_two2&#x27;, &#x27;/home/ArsenalSystem/web2py/applications/model_two&#x27;, &#x27;/home/ArsenalSystem/web2py/applications/admin&#x27;])</div></td></tr><tr><td style="font-weight:bold;vertical-align:top;">applications_parent</td><td style="vertical-align:top;">:</td><td><div>/home/ArsenalSystem/web2py</div></td></tr><tr><td style="font-weight:bold;vertical-align:top;">content_length</td><td style="vertical-align:top;">:</td><td><div></div></td></tr><tr><td style="font-weight:bold;vertical-align:top;">content_type</td><td style="vertical-align:top;">:</td><td><div></div></td></tr><tr><td style="font-weight:bold;vertical-align:top;">db_sessions</td><td style="vertical-align:top;">:</td><td><div>set([])</div></td></tr><tr><td style="font-weight:bold;vertical-align:top;">debugging</td><td style="vertical-align:top;">:</td><td><div>True</div></td></tr><tr><td style="font-weight:bold;vertical-align:top;">document_root</td><td style="vertical-align:top;">:</td><td><div>/usr/local/openresty/nginx/html</div></td></tr><tr><td style="font-weight:bold;vertical-align:top;">gluon_parent</td><td style="vertical-align:top;">:</td><td><div>/home/ArsenalSystem/web2py</div></td></tr><tr><td style="font-weight:bold;vertical-align:top;">http_accept</td><td style="vertical-align:top;">:</td><td><div>text/html,application/xhtml+xml,application/xml;q=0.9,image/avif,image/webp,image/apng,*/*;q=0.8,application/signed-exchange;v=b3;q=0.9</div></td></tr><tr><td style="font-weight:bold;vertical-align:top;">http_accept_encoding</td><td style="vertical-align:top;">:</td><td><div>gzip, deflate, br</div></td></tr><tr><td style="font-weight:bold;vertical-align:top;">http_accept_language</td><td style="vertical-align:top;">:</td><td><div>pt-BR,pt;q=0.9,en-US;q=0.8,en;q=0.7</div></td></tr><tr><td style="font-weight:bold;vertical-align:top;">http_cache_control</td><td style="vertical-align:top;">:</td><td><div>max-age=0</div></td></tr><tr><td style="font-weight:bold;vertical-align:top;">http_connection</td><td style="vertical-align:top;">:</td><td><div>close</div></td></tr><tr><td style="font-weight:bold;vertical-align:top;">http_cookie</td><td style="vertical-align:top;">:</td><td><div>_ga=GA1.2.1826198659.1609012104; session_id_prototipo01=177.37.224.149-717919b2-e69d-42da-9da4-e67325c0280a; session_id_admin=177.37.224.149-615521f5-6a34-470d-b38d-7b858ab2dd00; session_id_model_two=177.37.224.149-432641bb-c0b0-45cd-b264-db29b6286d90</div></td></tr><tr><td style="font-weight:bold;vertical-align:top;">http_host</td><td style="vertical-align:top;">:</td><td><div>arsenalsystem.pythonanywhere.com</div></td></tr><tr><td style="font-weight:bold;vertical-align:top;">http_referer</td><td style="vertical-align:top;">:</td><td><div>https://arsenalsystem.pythonanywhere.com/model_two/acs_sistema/index</div></td></tr><tr><td style="font-weight:bold;vertical-align:top;">http_sec_fetch_dest</td><td style="vertical-align:top;">:</td><td><div>document</div></td></tr><tr><td style="font-weight:bold;vertical-align:top;">http_sec_fetch_mode</td><td style="vertical-align:top;">:</td><td><div>navigate</div></td></tr><tr><td style="font-weight:bold;vertical-align:top;">http_sec_fetch_site</td><td style="vertical-align:top;">:</td><td><div>same-origin</div></td></tr><tr><td style="font-weight:bold;vertical-align:top;">http_sec_fetch_user</td><td style="vertical-align:top;">:</td><td><div>?1</div></td></tr><tr><td style="font-weight:bold;vertical-align:top;">http_upgrade_insecure_requests</td><td style="vertical-align:top;">:</td><td><div>1</div></td></tr><tr><td style="font-weight:bold;vertical-align:top;">http_user_agent</td><td style="vertical-align:top;">:</td><td><div>Mozilla/5.0 (Windows NT 6.1; Win64; x64) AppleWebKit/537.36 (KHTML, like Gecko) Chrome/88.0.4324.104 Safari/537.36</div></td></tr><tr><td style="font-weight:bold;vertical-align:top;">http_x_forwarded_for</td><td style="vertical-align:top;">:</td><td><div>177.37.224.149</div></td></tr><tr><td style="font-weight:bold;vertical-align:top;">http_x_real_ip</td><td style="vertical-align:top;">:</td><td><div>177.37.224.149</div></td></tr><tr><td style="font-weight:bold;vertical-align:top;">https</td><td style="vertical-align:top;">:</td><td><div>on</div></td></tr><tr><td style="font-weight:bold;vertical-align:top;">is_jython</td><td style="vertical-align:top;">:</td><td><div>False</div></td></tr><tr><td style="font-weight:bold;vertical-align:top;">is_py2</td><td style="vertical-align:top;">:</td><td><div>True</div></td></tr><tr><td style="font-weight:bold;vertical-align:top;">is_pypy</td><td style="vertical-align:top;">:</td><td><div>False</div></td></tr><tr><td style="font-weight:bold;vertical-align:top;">is_source</td><td style="vertical-align:top;">:</td><td><div>True</div></td></tr><tr><td style="font-weight:bold;vertical-align:top;">local_hosts</td><td style="vertical-align:top;">:</td><td><div><table><tr><td><div>35.173.69.207</div></td></tr><tr><td><div>blue-liveweb15</div></td></tr><tr><td><div>::ffff:127.0.0.1</div></td></tr><tr><td><div>::1</div></td></tr><tr><td><div>arsenalsystem.pythonanywhere.com</div></td></tr><tr><td><div>127.0.0.1</div></td></tr><tr><td><div>localhost</div></td></tr></table></div></td></tr><tr><td style="font-weight:bold;vertical-align:top;">path_info</td><td style="vertical-align:top;">:</td><td><div>/model_two/default/index</div></td></tr><tr><td style="font-weight:bold;vertical-align:top;">query_string</td><td style="vertical-align:top;">:</td><td><div></div></td></tr><tr><td style="font-weight:bold;vertical-align:top;">remote_addr</td><td style="vertical-align:top;">:</td><td><div>10.0.0.124</div></td></tr><tr><td style="font-weight:bold;vertical-align:top;">remote_port</td><td style="vertical-align:top;">:</td><td><div>49190</div></td></tr><tr><td style="font-weight:bold;vertical-align:top;">request_method</td><td style="vertical-align:top;">:</td><td><div>GET</div></td></tr><tr><td style="font-weight:bold;vertical-align:top;">request_uri</td><td style="vertical-align:top;">:</td><td><div>/model_two/default/index</div></td></tr><tr><td style="font-weight:bold;vertical-align:top;">script_name</td><td style="vertical-align:top;">:</td><td><div></div></td></tr><tr><td style="font-weight:bold;vertical-align:top;">server_name</td><td style="vertical-align:top;">:</td><td><div>arsenalsystem.pythonanywhere.com</div></td></tr><tr><td style="font-weight:bold;vertical-align:top;">server_port</td><td style="vertical-align:top;">:</td><td><div>443</div></td></tr><tr><td style="font-weight:bold;vertical-align:top;">server_protocol</td><td style="vertical-align:top;">:</td><td><div>HTTP/1.1</div></td></tr><tr><td style="font-weight:bold;vertical-align:top;">uwsgi.node</td><td style="vertical-align:top;">:</td><td><div>blue-liveweb15</div></td></tr><tr><td style="font-weight:bold;vertical-align:top;">uwsgi.version</td><td style="vertical-align:top;">:</td><td><div>2.0.17.1</div></td></tr><tr><td style="font-weight:bold;vertical-align:top;">uwsgi_node</td><td style="vertical-align:top;">:</td><td><div>blue-liveweb15</div></td></tr><tr><td style="font-weight:bold;vertical-align:top;">uwsgi_version</td><td style="vertical-align:top;">:</td><td><div>2.0.17.1</div></td></tr><tr><td style="font-weight:bold;vertical-align:top;">web2py_path</td><td style="vertical-align:top;">:</td><td><div>/home/ArsenalSystem/web2py</div></td></tr><tr><td style="font-weight:bold;vertical-align:top;">web2py_version</td><td style="vertical-align:top;">:</td><td><div>2.18.5-stable+timestamp.2019.04.08.04.22.03</div></td></tr><tr><td style="font-weight:bold;vertical-align:top;">wsgi.errors</td><td style="vertical-align:top;">:</td><td><div>&lt;uwsgi_file__bin_user_wsgi_wrapper.ErrorLogFile object at 0x7f1b6152a790&gt;</div></td></tr><tr><td style="font-weight:bold;vertical-align:top;">wsgi.file_wrapper</td><td style="vertical-align:top;">:</td><td><div>&lt;built-in function uwsgi_sendfile&gt;</div></td></tr><tr><td style="font-weight:bold;vertical-align:top;">wsgi.input</td><td style="vertical-align:top;">:</td><td><div>&lt;uwsgi._Input object at 0x7f1b6285ff48&gt;</div></td></tr><tr><td style="font-weight:bold;vertical-align:top;">wsgi.multiprocess</td><td style="vertical-align:top;">:</td><td><div>False</div></td></tr><tr><td style="font-weight:bold;vertical-align:top;">wsgi.multithread</td><td style="vertical-align:top;">:</td><td><div>False</div></td></tr><tr><td style="font-weight:bold;vertical-align:top;">wsgi.run_once</td><td style="vertical-align:top;">:</td><td><div>False</div></td></tr><tr><td style="font-weight:bold;vertical-align:top;">wsgi.url_scheme</td><td style="vertical-align:top;">:</td><td><div>https</div></td></tr><tr><td style="font-weight:bold;vertical-align:top;">wsgi.version</td><td style="vertical-align:top;">:</td><td><div><table><tr><td><div>1</div></td></tr><tr><td><div>0</div></td></tr></table></div></td></tr><tr><td style="font-weight:bold;vertical-align:top;">wsgi_errors</td><td style="vertical-align:top;">:</td><td><div>&lt;uwsgi_file__bin_user_wsgi_wrapper.ErrorLogFile object at 0x7f1b6152a790&gt;</div></td></tr><tr><td style="font-weight:bold;vertical-align:top;">wsgi_file_wrapper</td><td style="vertical-align:top;">:</td><td><div>&lt;built-in function uwsgi_sendfile&gt;</div></td></tr><tr><td style="font-weight:bold;vertical-align:top;">wsgi_input</td><td style="vertical-align:top;">:</td><td><div>&lt;uwsgi._Input object at 0x7f1b6285ff48&gt;</div></td></tr><tr><td style="font-weight:bold;vertical-align:top;">wsgi_multiprocess</td><td style="vertical-align:top;">:</td><td><div>False</div></td></tr><tr><td style="font-weight:bold;vertical-align:top;">wsgi_multithread</td><td style="vertical-align:top;">:</td><td><div>False</div></td></tr><tr><td style="font-weight:bold;vertical-align:top;">wsgi_run_once</td><td style="vertical-align:top;">:</td><td><div>False</div></td></tr><tr><td style="font-weight:bold;vertical-align:top;">wsgi_url_scheme</td><td style="vertical-align:top;">:</td><td><div>https</div></td></tr><tr><td style="font-weight:bold;vertical-align:top;">wsgi_version</td><td style="vertical-align:top;">:</td><td><div><table><tr><td><div>1</div></td></tr><tr><td><div>0</div></td></tr></table></div></td></tr></table></div></td></tr><tr><td style="font-weight:bold;vertical-align:top;">extension</td><td style="vertical-align:top;">:</td><td><div>html</div></td></tr><tr><td style="font-weight:bold;vertical-align:top;">folder</td><td style="vertical-align:top;">:</td><td><div>/home/ArsenalSystem/web2py/applications/model_two</div></td></tr><tr><td style="font-weight:bold;vertical-align:top;">function</td><td style="vertical-align:top;">:</td><td><div>index</div></td></tr><tr><td style="font-weight:bold;vertical-align:top;">global_settings</td><td style="vertical-align:top;">:</td><td><div><table><tr><td style="font-weight:bold;vertical-align:top;">app_folders</td><td style="vertical-align:top;">:</td><td><div>set([&#x27;/home/ArsenalSystem/web2py/applications/model_two2&#x27;, &#x27;/home/ArsenalSystem/web2py/applications/model_two&#x27;, &#x27;/home/ArsenalSystem/web2py/applications/admin&#x27;])</div></td></tr><tr><td style="font-weight:bold;vertical-align:top;">applications_parent</td><td style="vertical-align:top;">:</td><td><div>/home/ArsenalSystem/web2py</div></td></tr><tr><td style="font-weight:bold;vertical-align:top;">db_sessions</td><td style="vertical-align:top;">:</td><td><div>set([])</div></td></tr><tr><td style="font-weight:bold;vertical-align:top;">debugging</td><td style="vertical-align:top;">:</td><td><div>True</div></td></tr><tr><td style="font-weight:bold;vertical-align:top;">gluon_parent</td><td style="vertical-align:top;">:</td><td><div>/home/ArsenalSystem/web2py</div></td></tr><tr><td style="font-weight:bold;vertical-align:top;">is_jython</td><td style="vertical-align:top;">:</td><td><div>False</div></td></tr><tr><td style="font-weight:bold;vertical-align:top;">is_py2</td><td style="vertical-align:top;">:</td><td><div>True</div></td></tr><tr><td style="font-weight:bold;vertical-align:top;">is_pypy</td><td style="vertical-align:top;">:</td><td><div>False</div></td></tr><tr><td style="font-weight:bold;vertical-align:top;">is_source</td><td style="vertical-align:top;">:</td><td><div>True</div></td></tr><tr><td style="font-weight:bold;vertical-align:top;">local_hosts</td><td style="vertical-align:top;">:</td><td><div><table><tr><td><div>35.173.69.207</div></td></tr><tr><td><div>blue-liveweb15</div></td></tr><tr><td><div>::ffff:127.0.0.1</div></td></tr><tr><td><div>::1</div></td></tr><tr><td><div>arsenalsystem.pythonanywhere.com</div></td></tr><tr><td><div>127.0.0.1</div></td></tr><tr><td><div>localhost</div></td></tr></table></div></td></tr><tr><td style="font-weight:bold;vertical-align:top;">web2py_version</td><td style="vertical-align:top;">:</td><td><div>2.18.5-stable+timestamp.2019.04.08.04.22.03</div></td></tr></table></div></td></tr><tr><td style="font-weight:bold;vertical-align:top;">is_https</td><td style="vertical-align:top;">:</td><td><div>True</div></td></tr><tr><td style="font-weight:bold;vertical-align:top;">is_local</td><td style="vertical-align:top;">:</td><td><div>False</div></td></tr><tr><td style="font-weight:bold;vertical-align:top;">is_restful</td><td style="vertical-align:top;">:</td><td><div>False</div></td></tr><tr><td style="font-weight:bold;vertical-align:top;">is_scheduler</td><td style="vertical-align:top;">:</td><td><div>False</div></td></tr><tr><td style="font-weight:bold;vertical-align:top;">is_shell</td><td style="vertical-align:top;">:</td><td><div>False</div></td></tr><tr><td style="font-weight:bold;vertical-align:top;">method</td><td style="vertical-align:top;">:</td><td><div>GET</div></td></tr><tr><td style="font-weight:bold;vertical-align:top;">now</td><td style="vertical-align:top;">:</td><td><div>datetime.datetime(2021, 1, 28, 3, 43, 56, 623125)</div></td></tr><tr><td style="font-weight:bold;vertical-align:top;">raw_args</td><td style="vertical-align:top;">:</td><td><div></div></td></tr><tr><td style="font-weight:bold;vertical-align:top;">raw_extension</td><td style="vertical-align:top;">:</td><td><div>None</div></td></tr><tr><td style="font-weight:bold;vertical-align:top;">url</td><td style="vertical-align:top;">:</td><td><div>/model_two/default/index</div></td></tr><tr><td style="font-weight:bold;vertical-align:top;">utcnow</td><td style="vertical-align:top;">:</td><td><div>datetime.datetime(2021, 1, 28, 3, 43, 56, 623149)</div></td></tr><tr><td style="font-weight:bold;vertical-align:top;">wsgi</td><td style="vertical-align:top;">:</td><td><div>&lt;gluon.main.LazyWSGI object at 0x7f1b5a7fc650&gt;</div></td></tr></table></div>'
tRp59
sS'frames'
p60
(lp61
(dp62
S'file'
p63
S'/home/ArsenalSystem/web2py/gluon/restricted.py'
p64
sS'dump'
p65
(dp66
S'environment'
p67
S"{'A': <class 'gluon.html.A'>, 'ANY_OF': <class 'pydal.validators.ANY_OF'>, 'ASSIGNJS': <function ASSIGNJS>, 'AppConfig': <function AppConfig>, 'Auth': <class 'gluon.tools.Auth'>, 'B': <class 'gluon.html.B'>, 'BEAUTIFY': <class 'gluon.html.BEAUTIFY'>, 'BODY': <class 'gluon.html.BODY'>, 'BR': <class 'gluon.html.BR'>, 'BUTTON': <class 'gluon.html.BUTTON'>, ...}"
p68
sS'ccode'
p69
S'<code object <module> at 0x7f1b5a8b4eb0, file "/...ions/model_two/views/default/index.html", line 1>'
p70
ssS'lnum'
p71
I219
sS'lines'
p72
(dp73
I214
S'    if environment is None:'
p74
sI215
S'        environment = {}'
p75
sI216
S"    environment['__file__'] = layer"
p76
sI217
S"    environment['__name__'] = '__restricted__'"
p77
sI218
S'    try:'
p78
sI219
S'        exec(ccode, environment)'
p79
sI220
S'    except HTTP:'
p80
sI221
S'        raise'
p81
sI222
S'    except RestrictedError:'
p82
sI223
S'        # do not encapsulate (obfuscate) the original RestrictedError'
p83
ssS'call'
p84
S'(ccode=<code object <module> at 0x7f1b5a8b4eb0, file "/...ions/model_two/views/default/index.html", line 1>, environment={\'A\': <class \'gluon.html.A\'>, \'ANY_OF\': <class \'pydal.validators.ANY_OF\'>, \'ASSIGNJS\': <function ASSIGNJS>, \'AppConfig\': <function AppConfig>, \'Auth\': <class \'gluon.tools.Auth\'>, \'B\': <class \'gluon.html.B\'>, \'BEAUTIFY\': <class \'gluon.html.BEAUTIFY\'>, \'BODY\': <class \'gluon.html.BODY\'>, \'BR\': <class \'gluon.html.BR\'>, \'BUTTON\': <class \'gluon.html.BUTTON\'>, ...}, layer=\'/home/ArsenalSystem/web2py/applications/model_two/views/default/index.html\', scode=r"response.write(\'<!DOCTYPE html>\\n<!--[if (gt IE ...nse.write(\'\\n  </body>\\n</html>\\n\', escape=False)")'
p85
sS'func'
p86
S'restricted'
p87
sa(dp88
g63
S'/home/ArsenalSystem/web2py/applications/model_two/views/default/index.html'
p89
sg65
(dp90
sg71
I127
sg72
(dp91
I128
S'response.write(\'.</h2>\\n          <p class="mb-3">I throw myself down among the tall grass by the trickling stream; and, as I lie close to the earth, a thousand unknown plants are noticed by me: when I hear the buzz of the little world among the stalks, and grow familiar with the countless indescribable.</p> \\n            <a href="\', escape=False)'
p92
sI129
S"response.write(URL('acs_sistema','index'))"
p93
sI130
S'response.write(\'" class="btn btn-primary">Acessar</a>\\n        </div>\\n      </div>\\n    </div>\\n  </div>\\n  <div class="py-5">\\n    <div class="container">\\n      <div class="row">\\n        <div class="col-md-12">\\n          <div class="row">\\n            <div class="col-md-4 col-lg-3 order-1 order-md-1 p-0"> <img class="img-fluid d-block" src="https://static.pingendo.com/img-placeholder-3.svg"> </div>\\n            <div class="d-flex flex-column justify-content-center p-3 col-md-8 offset-lg-1 align-items-start order-2 order-md-2">\\n              <h3>A wonderful serenity</h3>\\n              <p class="mb-3">I should be incapable of drawing a single stroke at the present moment; and yet I feel that I never was a greater artist than now. When, while the lovely valley teems with vapour around me, and the meridian sun strikes the upper surface of the impenetrable foliage of my trees, and but a few stray gleams steal into the inner sanctuary.</p> <a class="btn btn-primary" href="#">Let\\\'s GO</a>\\n            </div>\\n          </div>\\n        </div>\\n      </div>\\n    </div>\\n  </div>\\n  <div class="py-5">\\n    <div class="container">\\n      <div class="row">\\n        <div class="col-md-12">\\n          <div class="row">\\n            <div class="d-flex flex-column justify-content-center p-3 col-md-8 offset-lg-1 align-items-start order-2 order-md-1">\\n              <h3>A wonderful serenity</h3>\\n              <p class="mb-3">I should be incapable of drawing a single stroke at the present moment; and yet I feel that I never was a greater artist than now. When, while the lovely valley teems with vapour around me, and the meridian sun strikes the upper surface of the impenetrable foliage of my trees, and but a few stray gleams steal into the inner sanctuary.</p> <a class="btn btn-primary" href="#">Let\\\'s GO</a>\\n            </div>\\n            <div class="col-md-4 col-lg-3 order-1 order-md-2 p-0"> <img class="img-fluid d-block" src="https://static.pingendo.com/img-placeholder-3.svg" draggable="true"> </div>\\n          </div>\\n        </div>\\n      </div>\\n    </div>\\n  </div>\\n  <div class="py-3 text-center">\\n    <div class="container">\\n      <div class="row">\\n        <div class="col-md-12 text-center">\\n          <h1>Mirror of the infinite</h1>\\n        </div>\\n      </div>\\n      <div class="row justify-content-center">\\n        <div class="col-md-4 p-4"> <i class="d-block fa fa-circle fa-3x mb-2 text-muted"></i>\\n          <h4> <b>One</b> </h4>\\n          <p>A wonderful serenity has taken possession of my entire soul, like these sweet mornings of spring which I enjoy with my whole heart.</p>\\n        </div>\\n        <div class="col-md-4  p-4"> <i class="d-block fa fa-stop-circle-o fa-3x mb-2 text-muted"></i>\\n          <h4> <b>Two</b> </h4>\\n          <p>I am alone, and feel the charm of existence in this spot, which was created for the bliss of souls like mine. I am so happy, my dear friend.</p>\\n        </div>\\n        <div class="col-md-4  p-4"> <i class="d-block fa fa-circle-o fa-3x mb-2 text-muted"></i>\\n          <h4> <b>Three</b> </h4>\\n          <p>I feel that I never was a greater artist than now. When, while the lovely valley teems with vapour around me.</p>\\n        </div>\\n      </div>\\n    </div>\\n  </div>\\n  <div class="py-5 text-center">\\n    <div class="container">\\n      <div class="row">\\n        <div class="mx-auto col-md-12">\\n          <h1 class="mb-3">Desenvolvedores</h1>\\n        </div>\\n      </div>\\n      <div class="row">\\n        <div class="col-lg-3  p-4"> <img class="img-fluid d-block mb-3 mx-auto rounded-circle" src="https://static.pingendo.com/img-placeholder-1.svg" width="100" alt="Card image cap">\\n          <h4> <b>Johann</b> </h4>\\n          <p>CEO and founder</p>\\n          <p class="mb-0"> <i>"I throw myself down among the tall grass by the trickling"</i> </p>\\n        </div>\\n        <div class="col-lg-3 p-4"> <img class="img-fluid d-block mb-3 mx-auto rounded-circle" src="https://static.pingendo.com/img-placeholder-2.svg" width="100" alt="Card image cap">\\n          <h4> <b>Gregory</b> </h4>\\n          <p>Co-founder</p>\\n          <p class="mb-0"> <i>"As I lie close to the earth, a thousand unknown plants"</i> </p>\\n        </div>\\n        <div class="col-lg-3 p-4"> <img class="img-fluid d-block mb-3 mx-auto rounded-circle" src="https://static.pingendo.com/img-placeholder-3.svg" width="100">\\n          <h4> <b>James</b> </h4>\\n          <p>CFO</p>\\n          <p class="mb-0"> <i>"Then, my friend, when darkness overspreads my eyes"</i> </p>\\n        </div>\\n        <div class="col-lg-3  p-4"> <img class="img-fluid d-block mb-3 mx-auto rounded-circle" src="https://static.pingendo.com/img-placeholder-4.svg" width="100">\\n          <h4> <b>Amadeus</b> </h4>\\n          <p>CTO</p>\\n          <p class="mb-0"> <i>"Heaven and earth seem to dwell in my soul"</i> </p>\\n        </div>\\n      </div>\\n    </div>\\n  </div>\\n\', escape=False)'
p94
sI131
S"response.write('\\n      ', escape=False)"
p95
sI132
S"response.write(response.toolbar() if response.show_toolbar else '')"
p96
sI133
S"response.write('\\n    </div>\\n\\n    ', escape=False)"
p97
sI134
S'response.write(\' <!-- this is default footer -->\\n    <footer class="footer container-fluid">\\n      <div class="row">\\n        <div class="col-md-12">\\n          <div class="copyright pull-left">\', escape=False)'
p98
sI135
S"response.write(T('Copyright'))"
p99
sI136
S"response.write(' &#169; ', escape=False)"
p100
sI137
S'response.write(request.now.year)'
p101
sI118
S'        pass'
p102
sI119
S"    response.write('\\n            </div>\\n          </li>\\n        </ul>\\n        ', escape=False)"
p103
sI120
S'    pass'
p104
sI121
S"response.write('\\n      </div>\\n    </nav>\\n\\n    <!-- Masthead ===================================== -->\\n    ', escape=False)"
p105
sI122
S"response.write('\\n    ', escape=False)"
p106
sI123
S'response.write(\'\\n    <!-- Main ========================================= -->\\n    <!-- Begin page content -->\\n    <div class="container-fluid main-container">\\n      \', escape=False)'
p107
sI124
S'response.write(\'\\n<div class="py-5" >\\n    <div class="container">\\n      <div class="row">\\n        <div class="px-5 col-md-8 text-center mx-auto">\\n          <h3 class="text-primary display-4"> <b>\', escape=False)'
p108
sI125
S'response.write(cab.titulo)'
p109
sI126
S'response.write(\'</b> </h3>\\n          <h2 class="my-3">\', escape=False)'
p110
sI127
S'response.write(cab.subtitulo)'
p111
ssg84
S'()'
p112
sg86
S'<module>'
p113
sa(dp114
g63
S'/home/ArsenalSystem/web2py/gluon/packages/dal/pydal/objects.py'
p115
sg65
(dp116
S'builtinAttributeError'
p117
S"<type 'exceptions.AttributeError'>"
p118
ssg71
I118
sg72
(dp119
I113
S''
sI114
S'    def __getattr__(self, k):'
p120
sI115
S'        try:'
p121
sI116
S'            return self.__getitem__(k)'
p122
sI117
S'        except KeyError:'
p123
sI118
S'            raise AttributeError'
p124
sI119
S''
sI120
S'    def __copy__(self):'
p125
sI121
S'        return Row(self)'
p126
sI122
S''
ssg84
S"(self=<Row {'titulo_botao': 'Acessar', 'modified_by': ... 'Sistema de Controle', 'ativo': True, 'id': 1L}>, k='subtitulo')"
p127
sg86
S'__getattr__'
p128
sasS'pyver'
p129
S'Python 2.7.12: /usr/local/bin/uwsgi (prefix: /usr)'
p130
sS'session'
p131
g58
(S'sb\x08\x00\x00<div><table><tr><td style="font-weight:bold;vertical-align:top;">auth</td><td style="vertical-align:top;">:</td><td><div><table><tr><td style="font-weight:bold;vertical-align:top;">expiration</td><td style="vertical-align:top;">:</td><td><div>3600</div></td></tr><tr><td style="font-weight:bold;vertical-align:top;">hmac_key</td><td style="vertical-align:top;">:</td><td><div>55ed1094-b67e-4165-9e54-36d75efb579b</div></td></tr><tr><td style="font-weight:bold;vertical-align:top;">last_visit</td><td style="vertical-align:top;">:</td><td><div>datetime.datetime(2021, 1, 28, 3, 43, 56, 623125)</div></td></tr><tr><td style="font-weight:bold;vertical-align:top;">user</td><td style="vertical-align:top;">:</td><td><div><table><tr><td style="font-weight:bold;vertical-align:top;">email</td><td style="vertical-align:top;">:</td><td><div>betin@gmail.com</div></td></tr><tr><td style="font-weight:bold;vertical-align:top;">first_name</td><td style="vertical-align:top;">:</td><td><div>Rogoberto</div></td></tr><tr><td style="font-weight:bold;vertical-align:top;">id</td><td style="vertical-align:top;">:</td><td><div>1L</div></td></tr><tr><td style="font-weight:bold;vertical-align:top;">last_name</td><td style="vertical-align:top;">:</td><td><div>Ribeiro</div></td></tr><tr><td style="font-weight:bold;vertical-align:top;">registration_id</td><td style="vertical-align:top;">:</td><td><div></div></td></tr><tr><td style="font-weight:bold;vertical-align:top;">registration_key</td><td style="vertical-align:top;">:</td><td><div></div></td></tr><tr><td style="font-weight:bold;vertical-align:top;">reset_password_key</td><td style="vertical-align:top;">:</td><td><div></div></td></tr></table></div></td></tr><tr><td style="font-weight:bold;vertical-align:top;">user_groups</td><td style="vertical-align:top;">:</td><td><div><table><tr><td style="font-weight:bold;vertical-align:top;">1</td><td style="vertical-align:top;">:</td><td><div>user_1</div></td></tr></table></div></td></tr></table></div></td></tr><tr><td style="font-weight:bold;vertical-align:top;">flash</td><td style="vertical-align:top;">:</td><td><div>None</div></td></tr></table></div>'
tRp132
sS'etype'
p133
S"<type 'exceptions.AttributeError'>"
p134
sS'date'
p135
S'Thu Jan 28 03:43:56 2021'
p136
sS'response'
p137
g58
(S's\x9f\x1d\x00\x00<div><table><tr><td style="font-weight:bold;vertical-align:top;">body</td><td style="vertical-align:top;">:</td><td><div>&lt;cStringIO.StringO object at 0x7f1b5a5bcd50&gt;</div></td></tr><tr><td style="font-weight:bold;vertical-align:top;">cookies</td><td style="vertical-align:top;">:</td><td><div><table><tr><td style="font-weight:bold;vertical-align:top;">session_id_model_two</td><td style="vertical-align:top;">:</td><td><div>177.37.224.149-432641bb-c0b0-45cd-b264-db29b6286d90<table><tr><td style="font-weight:bold;vertical-align:top;">comment</td><td style="vertical-align:top;">:</td><td><div></div></td></tr><tr><td style="font-weight:bold;vertical-align:top;">domain</td><td style="vertical-align:top;">:</td><td><div></div></td></tr><tr><td style="font-weight:bold;vertical-align:top;">expires</td><td style="vertical-align:top;">:</td><td><div></div></td></tr><tr><td style="font-weight:bold;vertical-align:top;">httponly</td><td style="vertical-align:top;">:</td><td><div></div></td></tr><tr><td style="font-weight:bold;vertical-align:top;">max-age</td><td style="vertical-align:top;">:</td><td><div></div></td></tr><tr><td style="font-weight:bold;vertical-align:top;">path</td><td style="vertical-align:top;">:</td><td><div>/</div></td></tr><tr><td style="font-weight:bold;vertical-align:top;">samesite</td><td style="vertical-align:top;">:</td><td><div></div></td></tr><tr><td style="font-weight:bold;vertical-align:top;">secure</td><td style="vertical-align:top;">:</td><td><div></div></td></tr><tr><td style="font-weight:bold;vertical-align:top;">version</td><td style="vertical-align:top;">:</td><td><div></div></td></tr></table></div></td></tr></table></div></td></tr><tr><td style="font-weight:bold;vertical-align:top;">delimiters</td><td style="vertical-align:top;">:</td><td><div><table><tr><td><div>{{</div></td></tr><tr><td><div>}}</div></td></tr></table></div></td></tr><tr><td style="font-weight:bold;vertical-align:top;">files</td><td style="vertical-align:top;">:</td><td><div><table><tr><td><div>/model_two/static/js/jquery.js</div></td></tr><tr><td><div>/model_two/static/css/calendar.css</div></td></tr><tr><td><div>/model_two/static/js/calendar.js</div></td></tr><tr><td><div>/model_two/static/js/web2py.js</div></td></tr></table></div></td></tr><tr><td style="font-weight:bold;vertical-align:top;">flash</td><td style="vertical-align:top;">:</td><td><div></div></td></tr><tr><td style="font-weight:bold;vertical-align:top;">form_label_separator</td><td style="vertical-align:top;">:</td><td><div></div></td></tr><tr><td style="font-weight:bold;vertical-align:top;">formstyle</td><td style="vertical-align:top;">:</td><td><div>bootstrap4_inline</div></td></tr><tr><td style="font-weight:bold;vertical-align:top;">generic_patterns</td><td style="vertical-align:top;">:</td><td><div><table></table></div></td></tr><tr><td style="font-weight:bold;vertical-align:top;">google_analytics_id</td><td style="vertical-align:top;">:</td><td><div>None</div></td></tr><tr><td style="font-weight:bold;vertical-align:top;">headers</td><td style="vertical-align:top;">:</td><td><div><table><tr><td style="font-weight:bold;vertical-align:top;">X-Powered-By</td><td style="vertical-align:top;">:</td><td><div>web2py</div></td></tr></table></div></td></tr><tr><td style="font-weight:bold;vertical-align:top;">menu</td><td style="vertical-align:top;">:</td><td><div><table><tr><td><div><table><tr><td><div>Principal</div></td></tr><tr><td><div>False</div></td></tr><tr><td><div>/model_two/default/index</div></td></tr><tr><td><div><table></table></div></td></tr></table></div></td></tr></table></div></td></tr><tr><td style="font-weight:bold;vertical-align:top;">meta</td><td style="vertical-align:top;">:</td><td><div><table><tr><td style="font-weight:bold;vertical-align:top;">author</td><td style="vertical-align:top;">:</td><td><div>Your Name &lt;you@example.com&gt;</div></td></tr><tr><td style="font-weight:bold;vertical-align:top;">description</td><td style="vertical-align:top;">:</td><td><div>a cool new app</div></td></tr><tr><td style="font-weight:bold;vertical-align:top;">generator</td><td style="vertical-align:top;">:</td><td><div>Web2py Web Framework</div></td></tr><tr><td style="font-weight:bold;vertical-align:top;">keywords</td><td style="vertical-align:top;">:</td><td><div><table><tr><td><div>web2py</div></td></tr><tr><td><div>python</div></td></tr><tr><td><div>framework</div></td></tr></table></div></td></tr></table></div></td></tr><tr><td style="font-weight:bold;vertical-align:top;">models_to_run</td><td style="vertical-align:top;">:</td><td><div><table><tr><td><div>^\\w+\\.py$</div></td></tr><tr><td><div>^default/\\w+\\.py$</div></td></tr><tr><td><div>^default/index/\\w+\\.py$</div></td></tr></table></div></td></tr><tr><td style="font-weight:bold;vertical-align:top;">postprocessing</td><td style="vertical-align:top;">:</td><td><div><table></table></div></td></tr><tr><td style="font-weight:bold;vertical-align:top;">session_client</td><td style="vertical-align:top;">:</td><td><div>177.37.224.149</div></td></tr><tr><td style="font-weight:bold;vertical-align:top;">session_cookie_compression_level</td><td style="vertical-align:top;">:</td><td><div>None</div></td></tr><tr><td style="font-weight:bold;vertical-align:top;">session_cookie_expires</td><td style="vertical-align:top;">:</td><td><div>None</div></td></tr><tr><td style="font-weight:bold;vertical-align:top;">session_data_name</td><td style="vertical-align:top;">:</td><td><div>session_data_model_two</div></td></tr><tr><td style="font-weight:bold;vertical-align:top;">session_file</td><td style="vertical-align:top;">:</td><td><div>&lt;open file &#x27;/home/ArsenalSystem/web2py/applications/model_two/sessions/0ea/054/177.37.224.149-432641bb-c0b0-45cd-b264-db29b6286d90&#x27;, mode &#x27;rb+&#x27; at 0x7f1b5aa86930&gt;</div></td></tr><tr><td style="font-weight:bold;vertical-align:top;">session_filename</td><td style="vertical-align:top;">:</td><td><div>/home/ArsenalSystem/web2py/applications/model_two/sessions/177.37.224.149-432641bb-c0b0-45cd-b264-db29b6286d90</div></td></tr><tr><td style="font-weight:bold;vertical-align:top;">session_hash</td><td style="vertical-align:top;">:</td><td><div>2f3497149f7d93ef8b4878f2952c792a</div></td></tr><tr><td style="font-weight:bold;vertical-align:top;">session_id</td><td style="vertical-align:top;">:</td><td><div>177.37.224.149-432641bb-c0b0-45cd-b264-db29b6286d90</div></td></tr><tr><td style="font-weight:bold;vertical-align:top;">session_id_name</td><td style="vertical-align:top;">:</td><td><div>session_id_model_two</div></td></tr><tr><td style="font-weight:bold;vertical-align:top;">session_locked</td><td style="vertical-align:top;">:</td><td><div>True</div></td></tr><tr><td style="font-weight:bold;vertical-align:top;">session_masterapp</td><td style="vertical-align:top;">:</td><td><div>model_two</div></td></tr><tr><td style="font-weight:bold;vertical-align:top;">session_new</td><td style="vertical-align:top;">:</td><td><div>False</div></td></tr><tr><td style="font-weight:bold;vertical-align:top;">session_storage_type</td><td style="vertical-align:top;">:</td><td><div>file</div></td></tr><tr><td style="font-weight:bold;vertical-align:top;">show_toolbar</td><td style="vertical-align:top;">:</td><td><div>False</div></td></tr><tr><td style="font-weight:bold;vertical-align:top;">status</td><td style="vertical-align:top;">:</td><td><div>200</div></td></tr><tr><td style="font-weight:bold;vertical-align:top;">view</td><td style="vertical-align:top;">:</td><td><div>default/index.html</div></td></tr></table></div>'
tRp138
sS'locals'
p139
(dp140
S'k'
S"'subtitulo'"
p141
sS'self'
p142
S"<Row {'titulo_botao': 'Acessar', 'modified_by': ... 'Sistema de Controle', 'ativo': True, 'id': 1L}>"
p143
sssS'traceback'
p144
S'Traceback (most recent call last):\n  File "/home/ArsenalSystem/web2py/gluon/restricted.py", line 219, in restricted\n    exec(ccode, environment)\n  File "/home/ArsenalSystem/web2py/applications/model_two/views/default/index.html", line 127, in <module>\n  File "/home/ArsenalSystem/web2py/gluon/packages/dal/pydal/objects.py", line 118, in __getattr__\n    raise AttributeError\nAttributeError\n'
p145
s.