(dp1
S'output'
p2
S'missing "pass" in view'
p3
sS'layer'
p4
S'ParserContainer'
p5
sS'code'
p6
S'response.write(\'<!DOCTYPE html>\\n<!--[if (gt IE 9)|!(IE)]><!--> <html class="no-js" lang="\', escape=False)\nresponse.write(T.accepted_language or \'en\')\nresponse.write(\'"> <!--<![endif]-->\\n  <head>\\n    <meta charset="utf-8">\\n    <!-- www.phpied.com/conditional-comments-block-downloads/ -->\\n    <!-- Always force latest IE rendering engine\\n         (even in intranet) & Chrome Frame\\n         Remove this if you use the .htaccess -->\\n    <meta http-equiv="X-UA-Compatible" content="IE=edge\', escape=False)\nresponse.write(not request.is_local and \',chrome=1\' or \'\')\nresponse.write(\'">\\n    <!--  Mobile Viewport Fix\\n          j.mp/mobileviewport & davidbcalhoun.com/2010/viewport-metatag\\n          device-width: Occupy full width of the screen in its current orientation\\n          initial-scale = 1.0 retains dimensions instead of zooming out if page height > device height\\n          user-scalable = yes allows the user to zoom in -->\\n    <meta name="viewport" content="width=device-width, initial-scale=1.0">\\n    <title>\', escape=False)\nresponse.write(response.title or request.application)\nresponse.write(\'</title>\\n    <!-- http://dev.w3.org/html5/markup/meta.name.html -->\\n    <meta name="application-name" content="\', escape=False)\nresponse.write(request.application)\nresponse.write(\'">\\n    <!-- Speaking of Google, don\\\'t forget to set your site up:\\n         http://google.com/webmasters -->\\n    <meta name="google-site-verification" content="">\\n    <!-- include stylesheets -->\\n    <link rel="stylesheet" href="https://cdnjs.cloudflare.com/ajax/libs/font-awesome/4.7.0/css/font-awesome.min.css"/>\\n    <link rel="stylesheet" href="\', escape=False)\nresponse.write(URL(\'static\',\'css/bootstrap.min.css\'))\nresponse.write(\'"/>\\n    <link rel="stylesheet" href="\', escape=False)\nresponse.write(URL(\'static\',\'css/web2py-bootstrap4.css\'))\nresponse.write(\'"/>\\n    <link rel="shortcut icon" href="\', escape=False)\nresponse.write(URL(\'static\',\'images/favicon.ico\'))\nresponse.write(\'" type="image/x-icon">\\n    <link rel="apple-touch-icon" href="\', escape=False)\nresponse.write(URL(\'static\',\'images/favicon.png\'))\nresponse.write(\'">\\n    <!-- All JavaScript at the bottom, except for Modernizr which enables\\n         HTML5 elements & feature detects -->\\n    <script src="\', escape=False)\nresponse.write(URL(\'static\',\'js/modernizr-2.8.3.min.js\'))\nresponse.write(\'"></script>\\n    <!-- Favicons -->\\n    \', escape=False)\nresponse.write(\'<script type="text/javascript"><!--\\n    // These variables are used by the web2py_ajax_init function in web2py_ajax.js (which is loaded below).\\n    \', escape=False)\nresponse.write(ASSIGNJS(\nw2p_ajax_confirm_message = T(\'Are you sure you want to delete this object?\'),\nw2p_ajax_disable_with_message = T(\'Working...\'),\nw2p_ajax_date_format = T(\'%Y-%m-%d\'),\nw2p_ajax_datetime_format = T(\'%Y-%m-%d %H:%M:%S\'),\najax_error_500 = T.M(\'An error occured, please [[reload %s]] the page\') % URL(args=request.args, vars=request.get_vars)\n))\nresponse.write(\'\\n    //--></script>\\n\', escape=False)\nresponse.files.insert(0,URL(\'static\',\'js/jquery.js\'))\nresponse.files.insert(1,URL(\'static\',\'css/calendar.css\'))\nresponse.files.insert(2,URL(\'static\',\'js/calendar.js\'))\nresponse.files.insert(3,URL(\'static\',\'js/web2py.js\'))\nresponse.include_meta()\nresponse.include_files()\nresponse.write(\'\\n\', escape=False)\nresponse.write(\' <!-- this includes jquery.js, calendar.js/.css and web2py.js -->\\n    \', escape=False)\nresponse.write(\'\\n  </head>\\n  <body>\\n    <div class="w2p_flash alert alert-dismissable">\', escape=False)\nresponse.write(response.flash or \'\')\nresponse.write(\'</div>\\n    <!-- Navbar ======================================= -->\\n    <nav class="navbar navbar-light navbar-expand-md bg-faded bg-dark navbar-dark justify-content-center">\\n       <a href="#" class="navbar-brand d-flex w-50 mr-auto">Sistema</a>\\n       <button class="navbar-toggler" type="button" data-toggle="collapse" data-target="#navbarNavDropdown" aria-controls="navbarNavDropdown" aria-expanded="false" aria-label="Toggle navigation">\\n         <span class="navbar-toggler-icon"></span>\\n       </button>\\n       <div class="navbar-collapse collapse w-100" id="navbarNavDropdown">\\n         <ul class="navbar-nav w-100 justify-content-center">\\n          \', escape=False)\nfor _item in response.menu or []:\n    response.write(\'\\n          \', escape=False)\n    if len(_item)<4 or not _item[3]:\n        response.write(\'\\n          <li class="nav-item \', escape=False)\n        if _item[1]:\n            response.write(\'active\', escape=False)\n            pass\n        response.write(\'">\\n            <a class="nav-link" href="\', escape=False)\n        response.write(_item[2])\n        response.write(\'">\', escape=False)\n        response.write(_item[0])\n        response.write(\'</a>\\n          </li>\\n          \', escape=False)\n    else:\n        response.write(\'\\n          <li class="nav-item dropdown">\\n            <a class="nav-link dropdown-toggle" href="\', escape=False)\n        response.write(_item[2])\n        response.write(\'" data-toggle="dropdown" aria-haspopup="true" aria-expanded="false">\', escape=False)\n        response.write(_item[0])\n        response.write(\'</a>\\n            <div class="dropdown-menu">\\n              \', escape=False)\n        for _subitem in _item[3]:\n            response.write(\'\\n              <a class="dropdown-item" href="\', escape=False)\n            response.write(_subitem[2])\n            response.write(\'">\', escape=False)\n            response.write(_subitem[0])\n            response.write(\'</a>\\n              \', escape=False)\n            pass\n        response.write(\'\\n            </div>\\n          </li>\\n          \', escape=False)\n        pass\n    response.write(\'\\n          \', escape=False)\n    pass\nresponse.write(\'\\n        </ul>\\n        \', escape=False)\nif \'auth\' in globals():\n    response.write(\'\\n        <ul class="nav navbar-nav ml-auto w-100 justify-content-end">\\n          <li class="nav-item dropdown">\\n            <a class="nav-link dropdown-toggle" href="#" data-toggle="dropdown" aria-haspopup="true" aria-expanded="false">\\n              \', escape=False)\n    if auth.user:\n        response.write(auth.user.first_name)\n    else:\n        response.write(\'LOGIN\', escape=False)\n        pass\n    response.write(\'\\n            </a>\\n            <div class="dropdown-menu dropdown-menu-right">\\n              \', escape=False)\n    if auth.user:\n        response.write(\'\\n              <a class="dropdown-item" href="\', escape=False)\n        response.write(URL(\'default\',\'user/profile\'))\n        response.write(\'">\', escape=False)\n        response.write(T(\'Profile\'))\n        response.write(\'</a>\\n              \', escape=False)\n        if \'change_password\' not in auth.settings.actions_disabled:\n            response.write(\'\\n              <a class="dropdown-item" href="\', escape=False)\n            response.write(URL(\'default\',\'user/change_password\'))\n            response.write(\'">\', escape=False)\n            response.write(T(\'Change Password\'))\n            response.write(\'</a>\\n              \', escape=False)\n            pass\n        response.write(\'\\n              <a class="dropdown-item" href="\', escape=False)\n        response.write(URL(\'default\',\'user/logout\'))\n        response.write(\'">\', escape=False)\n        response.write(T(\'Logout\'))\n        response.write(\'</a>\\n              \', escape=False)\n    else:\n        response.write(\'\\n              <a class="dropdown-item" href="\', escape=False)\n        response.write(URL(\'default\',\'user/login\'))\n        response.write(\'">\', escape=False)\n        response.write(T(\'Login\'))\n        response.write(\'</a>\\n              \', escape=False)\n        if \'register\' not in auth.settings.actions_disabled:\n            response.write(\'\\n              <a class="dropdown-item" href="\', escape=False)\n            response.write(URL(\'default\',\'user/register\'))\n            response.write(\'">\', escape=False)\n            response.write(T(\'Sign up\'))\n            response.write(\'</a>\\n              \', escape=False)\n            pass\n        response.write(\'\\n              \', escape=False)\n        if \'retrieve_password\' not in auth.settings.actions_disabled:\n            response.write(\'\\n              <a class="dropdown-item" href="\', escape=False)\n            response.write(URL(\'default\',\'user/retrieve_password\'))\n            response.write(\'">\', escape=False)\n            response.write(T(\'Lost Password\'))\n            response.write(\'</a>\\n              \', escape=False)\n            pass\n        response.write(\'\\n              \', escape=False)\n        pass\n    response.write(\'\\n            </div>\\n          </li>\\n        </ul>\\n        \', escape=False)\n    pass\nresponse.write(\'\\n      </div>\\n    </nav>\\n\\n    <!-- Masthead ===================================== -->\\n    \', escape=False)\nresponse.write(\'\\n    \', escape=False)\nresponse.write(\'\\n    <!-- Main ========================================= -->\\n    <!-- Begin page content -->\\n    <div class="container-fluid main-container">\\n      \', escape=False)\nresponse.write(\'\\n\', escape=False)\ndebito=contrato.valor_total-contrato.valor_recebido\nresponse.write(\'\\n<div class="py-3 text-center" >\\n    <div class="container">\\n        <div class="row  my-2 ">\\n        <div class="col-md-6">\\n          <div class="row">\\n            <div class="col-md-6">\\n                <a class="btn btn-primary btn-block my-2" href="\', escape=False)\nresponse.write(URL(\'acs_clientes\',\'acessar\',args=contrato.locatario))\nresponse.write(\'">\\n                <i class="fa fa-fw fa-list"></i> Acessar Cliente</a>\\n              </div>\\n            <div class="col-md-6">\\n                <a class="btn btn-primary btn-block my-2" href="\', escape=False)\nresponse.write(URL(\'acs_imoveis\',\'acessar\',args=contrato.imovel))\nresponse.write(\'">\\n                    <i class="fa fa-fw fa-list"></i> Acessar Im\\xc3\\xb3vel</a>\\n              </div>\\n          </div>\\n        </div>\\n        <div class="col-md-6">\\n            <div class="row">\\n            <div class="col-md-6">\\n                <a class="btn btn-primary btn-block my-2  disabled" href="\', escape=False)\nresponse.write(URL(\'acs_contratos\',\'alterar_imovel\',args=contrato.id))\nresponse.write(\'">\\n                <i class="fa fa-fw fa-pencil"></i> Mudar Imovel</a>\\n              </div>\\n            <div class="col-md-6">\\n                \\n            \', escape=False)\nif  ((debito)>0)and(contrato.valor_recebido>0):\n    response.write(\'\\n                  <a class="btn btn-danger btn-block my-2 disabled" href="\', escape=False)\n    response.write(URL(\'acs_contratos\',\'deletar_contrato\',args=contrato.id))\n    response.write(\'">\\n                    <i class="fa fa-fw fa-trash"></i> Deletar Contrato</a>\\n                \', escape=False)\n    elif:\n        response.write(\'\\n                <a class="btn btn-danger btn-block my-2 " href="\', escape=False)\n        response.write(URL(\'acs_contratos\',\'deletar_contrato\',args=contrato.id))\n        response.write(\'">\\n                    <i class="fa fa-fw fa-trash"></i> Deletar Contrato</a>\\n              \\n                \', escape=False)\n        pass\n    response.write(\'\\n                </div>\\n          </div>\\n        </div>\\n        \\n      </div>\\n      <div class="row">\\n        <div class="mx-auto col-md-8">\\n          <h2 class="mb-3">\', escape=False)\n    response.write(contrato.virgencia_meses)\n    response.write(\' Meses</h2>\\n          <p class="lead">Locatario : \', escape=False)\n    response.write(contrato.locatario.razaosocial_nome)\n    response.write(\'</p>\\n            \', escape=False)\n    if contrato.fiador:\n        response.write(\'\\n          <p class="lead">Fiador : \', escape=False)\n        response.write(contrato.fiador.razaosocial_nome)\n        response.write(\'</p>\\n            \', escape=False)\n    else:\n        response.write(\'\\n          <p class="lead">Cau\\xc3\\xa7\\xc3\\xa3o : R$ \', escape=False)\n        response.write("{:,}".format(round(contrato.valor_caucao,1)).replace(",","."))\n        response.write(\'0</p>\\n            \', escape=False)\n        pass\n    response.write(\'\\n          <p class="lead">Imovel : \', escape=False)\n    response.write(contrato.imovel.lougradouro)\n    response.write(\' \', escape=False)\n    response.write(contrato.imovel.numero)\n    response.write(\'</p>\\n          <p class="lead">Valor Total : R$ \', escape=False)\n    response.write("{:,}".format(round(contrato.valor_total,1)).replace(",","."))\n    response.write(\'0</p>\\n          <p class="lead">Valor Recebido : R$ \', escape=False)\n    response.write("{:,}".format(round(contrato.valor_recebido,1)).replace(",","."))\n    response.write(\'0</p>\\n        </div>\\n      </div>\\n    </div>\\n  </div>\\n  <div class="">\\n    <div class="container">\\n      <div class="row">\\n        <div class="col-md-6">\\n          <div class="row">\\n            <div class="col-md-6"><a class="btn btn-primary btn-block my-2" href="\', escape=False)\n    response.write(URL(\'acs_contratos\',\'alterar\',args=contrato.id))\n    response.write(\'"><i class="fa fa-fw fa-pencil"></i>&nbsp;Alterar Contrato</a></div>\\n              \', escape=False)\n    if len(rows)>0:\n        response.write(\'\\n              \', escape=False)\n        if contrato.valor_reajuste>0:\n            response.write(\'\\n              <div class="col-md-6"><a class="btn btn-primary btn-block my-2 " href="\', escape=False)\n            response.write(URL(\'acs_contratos\',\'reajustar_parcelas\',args=contrato.id))\n            response.write(\'"><i class="fa fa-fw fa-gear"></i>&nbsp;Reajustar Parcelas</a></div>\\n              \', escape=False)\n        else:\n            response.write(\'\\n            <div class="col-md-6"><a class="btn btn-danger btn-block my-2 " href="\', escape=False)\n            response.write(URL(\'acs_contratos\',\'reajustar_parcelas\',args=contrato.id))\n            response.write(\'"><i class="fa fa-fw fa-gear"></i>&nbsp;Zerar a divida</a></div>\\n            \', escape=False)\n            pass\n        response.write(\'\\n              \', escape=False)\n        pass\n    response.write(\'\\n          </div>\\n        </div>\\n        <div class="col-md-6">\\n          <div class="row">\\n              \', escape=False)\n    if not len(rows)>0:\n        response.write(\'\\n            \\n            <div class="col-md-6"><a class="btn btn-primary btn-block my-2 " href="\', escape=False)\n        response.write(URL(\'acs_contratos\',\'gerar_parcelas\',args=contrato.id))\n        response.write(\'"><i class="fa fa-fw fa-list"></i>&nbsp;Gerar Parcelas</a></div>\\n          </div>\\n            \', escape=False)\n    else:\n        response.write(\'\\n            <div class="col-md-6"><a class="btn btn-primary btn-block my-2  disabled" href="\', escape=False)\n        response.write(URL(\'acs_contratos\',\'todos_recibos\',args=contrato.id))\n        response.write(\'"><i class="fa fa-download fa-fw"></i>&nbsp;Gerar Recibos</a></div>\\n            \\n            \', escape=False)\n        if (debito)>0:\n            response.write(\'\\n            <div class="col-md-6"><a class="btn btn-primary btn-block my-2" href="\', escape=False)\n            response.write(URL(\'acs_contratos\',\'contrato_locacao\',args=contrato.id))\n            response.write(\'"><i class="fa fa-fw fa-file-pdf-o"></i>&nbsp;Imprimir contrato</a></div>\\n            \', escape=False)\n        else:\n            response.write(\'\\n            <div class="col-md-6"><a class="btn btn-success btn-block my-2" href="\', escape=False)\n            response.write(URL(\'acs_contratos\',\'desocupar_imovel\',args=contrato.id))\n            response.write(\'"><i class="fa fa-fw fa-reload"></i> Desocupar Im\\xc3\\xb3vel</a></div>\\n            \', escape=False)\n            pass\n        response.write(\'\\n          </div>\\n            \', escape=False)\n        pass\n    response.write(\'\\n        </div>\\n      </div>\\n      <div class="row">\\n        <div class="col-md-12">\\n          <div class="table-responsive">\\n            <table class="table table-striped table-borderless  table-sm">\\n              <thead>\\n                <tr>\\n                  <th scope="col">Data</th>\\n                  <th scope="col">Valor</th>\\n                  <th scope="col">Status</th>\\n                  <th scope="col" id="noprint">Acessar</th>\\n                  <th scope="col" id="noprint">Recibo</th>\\n                </tr>\\n              </thead>\\n              <tbody>\\n                  \', escape=False)\n    total_recebido=0\n    response.write(\'\\n                  \', escape=False)\n    total_aguardando=0\n    response.write(\'\\n                  \', escape=False)\n    for row in rows:\n        response.write(\'\\n                <tr>\\n                    \', escape=False)\n        valor_recebido=row.valor_original\n        response.write(\'\\n                    \', escape=False)\n        if (row.finalizado)and(row.status!="Quitado"):\n            response.write(\'\\n                    \', escape=False)\n            if row.valor_recebido>0:\n                response.write(\'\\n                    \', escape=False)\n                valor_recebido=row.valor_recebido\n                response.write(\'\\n                    \', escape=False)\n                row.status="Quitado"\n                response.write(\'\\n                    \', escape=False)\n                row.update_record\n                response.write(\'\\n                    \', escape=False)\n                pass\n            response.write(\'\\n                    \', escape=False)\n            pass\n        response.write(\'\\n                  <th scope="row">\', escape=False)\n        response.write(("{}/{}/{}".format(row.data_vencimento.day,row.data_vencimento.month,row.data_vencimento.year)))\n        response.write(\'</th>\\n                    \\n                  <td>R$ \', escape=False)\n        response.write("{:,}".format(round(valor_recebido,1)).replace(",","."))\n        response.write(\'0</td>\\n                  <td>\', escape=False)\n        response.write(row.status)\n        response.write(\'</td>\\n                  <td id="noprint">\\n                      <a class="btn  my-2" href="\', escape=False)\n        response.write(URL(\'acs_recebimentos\',\'alterar_recibo\',args=row.id))\n        response.write(\'">\\n                          <i class="fa fa-pencil fa-fw fa-1x py-1"></i>\\n                      </a>\\n                    </td>\\n                  <td id="noprint">\\n                      <a class="btn  my-2 disabled" href="\', escape=False)\n        response.write(URL(\'acs_recebimentos\',\'recibo\',args=row.id))\n        response.write(\'">\\n                          <i class="fa fa-file-pdf-o fa-fw fa-1x py-1 text-danger"></i>\\n                      </a>\\n                    </td>\\n                </tr>\\n                  \\n                  \', escape=False)\n        if row.status==\'Aguardando\':\n            response.write(\'\\n                  \', escape=False)\n            total_aguardando+=row.valor_original\n            response.write(\'\\n                  \', escape=False)\n        elif row.status==\'Quitado\':\n            response.write(\'\\n                  \', escape=False)\n            total_recebido+=valor_recebido\n            response.write(\'\\n                  \\n                  \', escape=False)\n            pass\n        response.write(\'\\n                  \', escape=False)\n        pass\n    response.write(\'\\n              </tbody>\\n            </table>\\n          </div>\\n        </div>\\n      </div>\\n    </div>\\n  </div>\\n<div class="py-3 text-center" >\\n    <div class="container">\\n      <div class="row justify-content-center">\\n        <div class="col-lg-5 col-md-6 p-4"> <i class="d-block fa fa-circle fa-3x mb-2 text-muted"></i>\\n          <h4>Valor Recebido</h4>\\n          <p>R$ \', escape=False)\n    response.write("{:,}".format(round(total_recebido,1)).replace(",","."))\n    response.write(\'0</p>\\n        </div>\\n        <div class="col-lg-5 col-md-6 p-4"> <i class="d-block fa fa-circle-o fa-3x mb-2 text-muted"></i>\\n          <h4> <b>Valor Aguardando</b></h4>\\n          <p>R$ \', escape=False)\n    response.write("{:,}".format(round(total_aguardando,1)).replace(",","."))\n    response.write(\'0</p>\\n        </div>\\n      </div>\\n    </div>\\n  </div>\\n\\n\', escape=False)\n    total=total_recebido+total_aguardando\n    response.write(\'\\n\', escape=False)\n    if (contrato.valor_total!=total)or(contrato.valor_recebido!=total_recebido):\n        response.write(\'\\n\', escape=False)\n        contrato.valor_total=total\n        response.write(\'\\n\', escape=False)\n        contrato.valor_recebido=total_recebido\n        response.write(\'\\n\', escape=False)\n        contrato.update_record()\n        response.write(\'\\n\', escape=False)\n        redirect(URL(args=contrato.id))\n        response.write(\'\\n\', escape=False)\n        pass\n    response.write(\'\\n\', escape=False)\n    response.write(\'\\n      \', escape=False)\n    response.write(response.toolbar() if response.show_toolbar else \'\')\n    response.write(\'\\n    </div>\\n\\n    \', escape=False)\n    response.write(\' <!-- this is default footer -->\\n    <footer class="footer container-fluid">\\n      <div class="row">\\n        <div class="col-md-12">\\n          <div class="copyright pull-left">\', escape=False)\n    response.write(T(\'Copyright\'))\n    response.write(\' &#169; \', escape=False)\n    response.write(request.now.year)\n    response.write(\'</div>\\n          <div id="poweredBy" class="pull-right">\\n            <a href="#">Rogoberto Ribeiro</a>\\n          </div>\\n        </div>\\n      </div>\\n    </footer>\\n    \', escape=False)\n    response.write(\'\\n    <!-- The javascript =============================== -->\\n    <script src="\', escape=False)\n    response.write(URL(\'static\',\'js/bootstrap.bundle.min.js\'))\n    response.write(\'"></script>\\n    <script src="\', escape=False)\n    response.write(URL(\'static\',\'js/web2py-bootstrap4.js\'))\n    response.write(\'"></script>\\n    \', escape=False)\n    response.write(\'\\n    \', escape=False)\n    if response.google_analytics_id:\n        response.write(\'\\n    <!-- Analytics ==================================== -->\\n    <script src="\', escape=False)\n        response.write(URL(\'static\',\'js/analytics.min.js\'))\n        response.write(\'"></script>\\n    <script type="text/javascript">\\n      analytics.initialize({\\n      \\\'Google Analytics\\\':{trackingId:\\\'\', escape=False)\n        response.write(response.google_analytics_id)\n        response.write("\'}\\n      });\\n    </script>\\n    ", escape=False)\n        pass\n    response.write(\'\\n  </body>\\n</html>\\n\', escape=False)'
p7
sS'snapshot'
p8
(dp9
sS'traceback'
p10
S'None\n'
p11
s.