(dp1
S'output'
p2
S'missing "pass" in view'
p3
sS'layer'
p4
S'ParserContainer'
p5
sS'code'
p6
S'response.write(\'<!DOCTYPE html>\\n<!--[if (gt IE 9)|!(IE)]><!--> <html class="no-js" lang="\', escape=False)\nresponse.write(T.accepted_language or \'en\')\nresponse.write(\'"> <!--<![endif]-->\\n  <head>\\n    <meta charset="utf-8">\\n    <!-- www.phpied.com/conditional-comments-block-downloads/ -->\\n    <!-- Always force latest IE rendering engine\\n         (even in intranet) & Chrome Frame\\n         Remove this if you use the .htaccess -->\\n    <meta http-equiv="X-UA-Compatible" content="IE=edge\', escape=False)\nresponse.write(not request.is_local and \',chrome=1\' or \'\')\nresponse.write(\'">\\n    <!--  Mobile Viewport Fix\\n          j.mp/mobileviewport & davidbcalhoun.com/2010/viewport-metatag\\n          device-width: Occupy full width of the screen in its current orientation\\n          initial-scale = 1.0 retains dimensions instead of zooming out if page height > device height\\n          user-scalable = yes allows the user to zoom in -->\\n    <meta name="viewport" content="width=device-width, initial-scale=1.0">\\n    <title>\', escape=False)\nresponse.write(response.title or request.application)\nresponse.write(\'</title>\\n    <!-- http://dev.w3.org/html5/markup/meta.name.html -->\\n    <meta name="application-name" content="\', escape=False)\nresponse.write(request.application)\nresponse.write(\'">\\n    <!-- Speaking of Google, don\\\'t forget to set your site up:\\n         http://google.com/webmasters -->\\n    <meta name="google-site-verification" content="">\\n    <!-- include stylesheets -->\\n    <link rel="stylesheet" href="https://cdnjs.cloudflare.com/ajax/libs/font-awesome/4.7.0/css/font-awesome.min.css"/>\\n    <link rel="stylesheet" href="\', escape=False)\nresponse.write(URL(\'static\',\'css/bootstrap.min.css\'))\nresponse.write(\'"/>\\n    <link rel="stylesheet" href="\', escape=False)\nresponse.write(URL(\'static\',\'css/web2py-bootstrap4.css\'))\nresponse.write(\'"/>\\n    <link rel="shortcut icon" href="\', escape=False)\nresponse.write(URL(\'static\',\'images/favicon.ico\'))\nresponse.write(\'" type="image/x-icon">\\n    <link rel="apple-touch-icon" href="\', escape=False)\nresponse.write(URL(\'static\',\'images/favicon.png\'))\nresponse.write(\'">\\n    <!-- All JavaScript at the bottom, except for Modernizr which enables\\n         HTML5 elements & feature detects -->\\n    <script src="\', escape=False)\nresponse.write(URL(\'static\',\'js/modernizr-2.8.3.min.js\'))\nresponse.write(\'"></script>\\n    <!-- Favicons -->\\n    \', escape=False)\nresponse.write(\'<script type="text/javascript"><!--\\n    // These variables are used by the web2py_ajax_init function in web2py_ajax.js (which is loaded below).\\n    \', escape=False)\nresponse.write(ASSIGNJS(\nw2p_ajax_confirm_message = T(\'Are you sure you want to delete this object?\'),\nw2p_ajax_disable_with_message = T(\'Working...\'),\nw2p_ajax_date_format = T(\'%Y-%m-%d\'),\nw2p_ajax_datetime_format = T(\'%Y-%m-%d %H:%M:%S\'),\najax_error_500 = T.M(\'An error occured, please [[reload %s]] the page\') % URL(args=request.args, vars=request.get_vars)\n))\nresponse.write(\'\\n    //--></script>\\n\', escape=False)\nresponse.files.insert(0,URL(\'static\',\'js/jquery.js\'))\nresponse.files.insert(1,URL(\'static\',\'css/calendar.css\'))\nresponse.files.insert(2,URL(\'static\',\'js/calendar.js\'))\nresponse.files.insert(3,URL(\'static\',\'js/web2py.js\'))\nresponse.include_meta()\nresponse.include_files()\nresponse.write(\'\\n\', escape=False)\nresponse.write(\' <!-- this includes jquery.js, calendar.js/.css and web2py.js -->\\n    \', escape=False)\nresponse.write(\'\\n  </head>\\n  <body>\\n      <style  type="text/css">\\n    @media print{\\n        .btn{\\n             display: none;\\n        }\\n        \\n        #noprint { display:none; } \\n      a:link{font:15px "verdana"; color:#8B4513; text-decoration:none;}\\n\\na:hover{font:20px "verdana"; color:black; text-decoration:underline;}\\n    }\\n          \\n      </style>\\n    <div class="w2p_flash alert alert-dismissable">\', escape=False)\nresponse.write(response.flash or \'\')\nresponse.write(\'</div>\\n    <!-- Navbar ======================================= -->\\n    <nav class="navbar navbar-light navbar-expand-md bg-faded bg-dark navbar-dark justify-content-center">\\n       <a href="#" class="navbar-brand d-flex w-50 mr-auto">Sistema</a>\\n       <button class="navbar-toggler" type="button" data-toggle="collapse" data-target="#navbarNavDropdown" aria-controls="navbarNavDropdown" aria-expanded="false" aria-label="Toggle navigation">\\n         <span class="navbar-toggler-icon"></span>\\n       </button>\\n       <div class="navbar-collapse collapse w-100" id="navbarNavDropdown">\\n         <ul class="navbar-nav w-100 justify-content-center">\\n          \', escape=False)\nfor _item in response.menu or []:\n    response.write(\'\\n          \', escape=False)\n    if len(_item)<4 or not _item[3]:\n        response.write(\'\\n          <li class="nav-item \', escape=False)\n        if _item[1]:\n            response.write(\'active\', escape=False)\n            pass\n        response.write(\'">\\n            <a class="nav-link" href="\', escape=False)\n        response.write(_item[2])\n        response.write(\'">\', escape=False)\n        response.write(_item[0])\n        response.write(\'</a>\\n          </li>\\n          \', escape=False)\n    else:\n        response.write(\'\\n          <li class="nav-item dropdown">\\n            <a class="nav-link dropdown-toggle" href="\', escape=False)\n        response.write(_item[2])\n        response.write(\'" data-toggle="dropdown" aria-haspopup="true" aria-expanded="false">\', escape=False)\n        response.write(_item[0])\n        response.write(\'</a>\\n            <div class="dropdown-menu">\\n              \', escape=False)\n        for _subitem in _item[3]:\n            response.write(\'\\n              <a class="dropdown-item" href="\', escape=False)\n            response.write(_subitem[2])\n            response.write(\'">\', escape=False)\n            response.write(_subitem[0])\n            response.write(\'</a>\\n              \', escape=False)\n            pass\n        response.write(\'\\n            </div>\\n          </li>\\n          \', escape=False)\n        pass\n    response.write(\'\\n          \', escape=False)\n    pass\nresponse.write(\'\\n        </ul>\\n       \\n        \', escape=False)\nif \'auth\' in globals():\n    response.write(\'\\n        <ul class="nav navbar-nav ml-auto w-100 justify-content-end">\\n          <li class="nav-item dropdown">\\n            <a class="nav-link dropdown-toggle" href="#" data-toggle="dropdown" aria-haspopup="true" aria-expanded="false">\\n              \', escape=False)\n    if auth.user:\n        response.write(auth.user.first_name)\n    else:\n        response.write(\'LOGIN\', escape=False)\n        pass\n    response.write(\'\\n            </a>\\n            <div class="dropdown-menu dropdown-menu-right">\\n              \', escape=False)\n    if auth.user:\n        response.write(\'\\n              <a class="dropdown-item" href="\', escape=False)\n        response.write(URL(\'default\',\'user/profile\'))\n        response.write(\'">\', escape=False)\n        response.write(T(\'Profile\'))\n        response.write(\'</a>\\n              \', escape=False)\n        if \'change_password\' not in auth.settings.actions_disabled:\n            response.write(\'\\n              <a class="dropdown-item" href="\', escape=False)\n            response.write(URL(\'default\',\'user/change_password\'))\n            response.write(\'">\', escape=False)\n            response.write(T(\'Change Password\'))\n            response.write(\'</a>\\n              \', escape=False)\n            pass\n        response.write(\'\\n              <a class="dropdown-item" href="\', escape=False)\n        response.write(URL(\'default\',\'user/logout\'))\n        response.write(\'">\', escape=False)\n        response.write(T(\'Logout\'))\n        response.write(\'</a>\\n              \', escape=False)\n    else:\n        response.write(\'\\n              <a class="dropdown-item" href="\', escape=False)\n        response.write(URL(\'default\',\'user/login\'))\n        response.write(\'">\', escape=False)\n        response.write(T(\'Login\'))\n        response.write(\'</a>\\n              \', escape=False)\n        if \'register\' not in auth.settings.actions_disabled:\n            response.write(\'\\n              <a class="dropdown-item" href="\', escape=False)\n            response.write(URL(\'default\',\'user/register\'))\n            response.write(\'">\', escape=False)\n            response.write(T(\'Sign up\'))\n            response.write(\'</a>\\n              \', escape=False)\n            pass\n        response.write(\'\\n              \', escape=False)\n        if \'retrieve_password\' not in auth.settings.actions_disabled:\n            response.write(\'\\n              <a class="dropdown-item" href="\', escape=False)\n            response.write(URL(\'default\',\'user/retrieve_password\'))\n            response.write(\'">\', escape=False)\n            response.write(T(\'Lost Password\'))\n            response.write(\'</a>\\n              \', escape=False)\n            pass\n        response.write(\'\\n              \', escape=False)\n        pass\n    response.write(\'\\n            </div>\\n          </li>\\n        </ul>\\n        \', escape=False)\n    pass\nresponse.write(\'\\n      </div>\\n    </nav>\\n\\n    <!-- Masthead ===================================== -->\\n    \', escape=False)\nresponse.write(\'\\n    \', escape=False)\nresponse.write(\'\\n    <!-- Main ========================================= -->\\n    <!-- Begin page content -->\\n    <div class="container-fluid main-container">\\n      \', escape=False)\nresponse.write(\'\\n<div class="py-5" >\\n    <div class="container">\\n        <div class="row text-center">\\n        <div class="mx-auto col-md-8">\\n          <h1 class="mb-3">Rela\\xc3\\xa7\\xc3\\xa3o de Clientes</h1>\\n          <p class="lead">\', escape=False)\nresponse.write(empresa.razaosocial)\nresponse.write(\'</p>\\n        </div>\\n      </div>\\n        <div class="row border mb-2 " id="noprint">\\n            <div class="col-md-6">\\n                <a class="btn btn-primary my-2" href="\', escape=False)\nresponse.write(URL(\'acs_sistema\',\'index\'))\nresponse.write(\'">\\n                    <i class="fa fa-navicon fa-fw"></i>&nbsp;Inicio\\n                </a>\\n                <a class="btn btn-primary my-2" href="\', escape=False)\nresponse.write(URL(\'acs_clientes\',\'cadastrar\'))\nresponse.write(\'">\\n                    <i class="fa fa-user-plus fa-fw"></i>&nbsp;Cadastrar Cliente \\n                </a>\\n            </div>\\n            <div class="col-md-6">\\n                <div class="form-group row m-2">\\n                    <input type="text" class="form-control col-9 col-form-label ml-2" name="busca" placeholder="Pesquisa Nome/CPF" id="input"/>\\n                    <div class="col-2">\\n                        <button class="btn btn-primary botao " id="bt" type="button">\\n                            <i class="fa fa-search"></i>\\n                        </button>\\n                    </div>\\n                </div>\\n            </div>\\n        </div>\\n        \', escape=False)\nif len(rows)==0:\n    response.write(\'\\n            <center>\\n            <marquee>\\n                Voc\\xc3\\xaa n\\xc3\\xa3o possui nem um cliente cadastrado\\n            </marquee>\\n                </center>\\n            \', escape=False)\n    pass\nresponse.write(\'\\n      <div class="row border">\\n            \\n            \', escape=False)\nfor row in rows:\n    response.write(\'\\n        <div class="col-md-6">\\n          <div class="card text-center m-1 border">\\n            <div class="card-header">\\n              <h5 class="card-title">\', escape=False)\n    if row.tipo=="F\xc3\xadsica":\n        response.write(\'<i class="fa fa-user-o fa-fw fa-1x py-1" ></i>\', escape=False)\n    else:\n        response.write(\'<i class="fa fa-institution fa-fw fa-1x py-1" ></i> \', escape=False)\n        pass\n    response.write(\' \', escape=False)\n    response.write(row.razaosocial_nome)\n    response.write(\'</h5>\\n            </div>\\n            <div class="card-body">\\n                \\n                \', escape=False)\n    row.cpf=row.cpf.replace(".","").replace("-","").replace("/","")\n    response.write(\'\\n                \', escape=False)\n    row.update_record()\n    response.write(\'\\n                \', escape=False)\n    if len(row.cpf)>11:\n        response.write(\'\\n                \', escape=False)\n        row.cpf=""+(row.cpf)[0:2]+"."+(row.cpf)[2:5]+"."+(row.cpf)[5:8]+"/"+(row.cpf)[8:12]+"-"+(row.cpf)[12:14]\n        response.write(\'\\n                \', escape=False)\n        row.tipo=\'Jur\xc3\xaddica\'\n        response.write(\'\\n                \', escape=False)\n    else:\n        response.write(\'\\n                \', escape=False)\n        row.cpf=""+(row.cpf)[0:3]+"."+(row.cpf)[3:6]+"."+(row.cpf)[6:9]+"-"+(row.cpf)[9:11]\n        response.write(\'\\n                \', escape=False)\n        row.tipo=\'F\xc3\xadsica\'\n        response.write(\'\\n                \', escape=False)\n        pass\n    response.write(\'\\n              <h5 class="card-title">\', escape=False)\n    response.write(row.cpf)\n    response.write(\'</h5>\\n                \', escape=False)\n    row.telefone=(row.telefone).replace("(", "").replace(")", "").replace("-", "")\n    response.write(\'\\n                \', escape=False)\n    row.telefone="("+(row.telefone)[0:2]+")"+(row.telefone)[2:6]+"-"+(row.telefone)[6:11]\n    response.write(\'\\n                \', escape=False)\n    row.celular=(row.celular).replace("(", "").replace(")", "").replace("-", "")\n    response.write(\'\\n                \', escape=False)\n    row.celular="("+(row.celular)[0:2]+")"+(row.celular)[2:7]+"-"+(row.celular)[7:11]\n    response.write(\'\\n                <p>\\n                    \\n                <a  target="_blank" href="tel:+55-\', escape=False)\n    response.write(row.telefone)\n    response.write(\'"  id="noprint">\\n                    <i class="fa fa-fw fa-1x py-1 fa-phone" ></i>\\n                    \', escape=False)\n    response.write(row.telefone)\n    response.write(\'\\n                </a>\\n                <a  target="_blank" class="text-success" href=\\\'https://api.whatsapp.com/send?phone=55\', escape=False)\n    response.write(row.celular.replace("(", "").replace(")", "").replace("-", ""))\n    response.write(\'\\\'>\\n                    <i class="fa fa-fw fa-1x py-1 fa-whatsapp" ></i>\\n                    \', escape=False)\n    response.write(row.celular)\n    response.write(\'\\n                </a>\\n                </p>\\n                \', escape=False)\n    if row.q_parcelas_atrasadas>0:\n        response.write(\'\\n                <p class="text-danger">\', escape=False)\n        response.write(row.q_parcelas_atrasadas)\n        response.write(\' Parcelas em Atraso | \', escape=False)\n        response.write(row.valor_debito)\n        response.write(\' Total</p>\\n                \', escape=False)\n    else:\n        response.write(\'\\n                <p>Cliente est\\xc3\\xa1 em dias</p>\\n                \', escape=False)\n        pass\n    response.write(\'\\n\\n                \', escape=False)\n    if usuario.tipo!="Usuario":\n        response.write(\'\\n                <p>\', escape=False)\n        response.write(row.q_parcelas_aguardadas)\n        response.write(\' Parcelas Aguardando | \', escape=False)\n        response.write(row.valor_aguardando)\n        response.write(\' Total </p>\\n                \', escape=False)\n        pass\n    response.write(\'\\n                \', escape=False)\n    cpf = row.cpf\n    response.write(\'\\n                \', escape=False)\n    cpf = [int(char) for char in row.cpf if char.isdigit()]\n    response.write(\'\\n                  \', escape=False)\n    for i in range(9, 11):\n        response.write(\'\\n        \', escape=False)\n        value = sum((cpf[num] * ((i+1) - num) for num in range(0, i)))\n        response.write(\'\\n        \', escape=False)\n        digit = ((value * 10) % 11) % 10\n        response.write(\'\\n        \', escape=False)\n        if digit != cpf[i]:\n            response.write(\'\\n                  <h4>\\n                      CPF ERRADO!\\n                </h4>\\n                      \', escape=False)\n        else:\n            response.write(\'\\n                <a href="\', escape=False)\n            response.write(URL(\'acs_clientes\',\'atualizar_status_imoveis\', args=row.id))\n            response.write(\'" class="btn btn-primary">Acessar</a>\\n                    \', escape=False)\n            pass\n        response.write(\'\\n              \\n            </div>\\n          </div>\\n        </div>\\n                \', escape=False)\n        row.cpf=row.cpf.replace(".","").replace("-","").replace("/","")\n        response.write(\'\\n                \', escape=False)\n        row.update_record()\n        response.write(\'\\n            \', escape=False)\n        pass\n    response.write(\'\\n      </div>\\n<div class="row">\\n          <div class="col-md-12">\\n            <nav aria-label="Navega\\xc3\\xa7\\xc3\\xa3o de p\\xc3\\xa1gina exemplo">\\n  <ul class="pagination justify-content-end">\\n        \', escape=False)\n    if pagina != 1:\n        response.write(\'\\n        <li class="page-item">\\n            <a class="btn btn-outline-primary m-1" href="\', escape=False)\n        response.write(URL(args=pagina-1))\n        response.write(\'">\\n                <i class="fa fa-fw fa-arrow-left"></i>\\n                Anterior&nbsp;</a>\\n        </li>\\n        \', escape=False)\n        pass\n    response.write(\'\\n\\n        \', escape=False)\n    if pagina != paginas:\n        response.write(\'\\n        <li class="page-item">\\n             <a class="btn btn-outline-primary m-1" href="\', escape=False)\n        response.write(URL(args=pagina+1))\n        response.write(\'" >\\n                Pr\\xc3\\xb3ximo&nbsp;\\n                <i class="fa fa-fw fa-arrow-right"></i>\\n            </a>\\n        </li>\\n        \', escape=False)\n        pass\n    response.write(\'\\n    </ul>\\n</nav>\\n</div>\\n</div>\\n  </div>\\n  </div>\\n\\n<script>\\n    var inputElement = document.querySelector(\\\'input[name=busca]\\\');\\n    var btnElement = document.querySelector(\\\'button.botao\\\');\\n\\n    btnElement.onclick = function(){\\n     var busca= inputElement.value;\\n        window.location.href = "\', escape=False)\n    response.write(URL(\'index\'))\n    response.write(\'"+"/1/"+busca\\n\\n    }\\n    $(document).keypress(function(e) {\\n    if(e.which == 13) {\\n     var busca= inputElement.value;\\n        window.location.href = "\', escape=False)\n    response.write(URL(\'index\'))\n    response.write(\'"+"/1/"+busca\\n    }\\n});\\n</script>\\n\', escape=False)\n    response.write(\'\\n      \', escape=False)\n    response.write(response.toolbar() if response.show_toolbar else \'\')\n    response.write(\'\\n    </div>\\n\\n    \', escape=False)\n    response.write(\' <!-- this is default footer -->\\n    <footer class="footer container-fluid">\\n      <div class="row">\\n        <div class="col-md-12">\\n          <div class="copyright pull-left">\', escape=False)\n    response.write(T(\'Copyright\'))\n    response.write(\' &#169; \', escape=False)\n    response.write(request.now.year)\n    response.write(\'</div>\\n          <div id="poweredBy" class="pull-right">\\n            Suporte\\n            <a href="#">(88)8112-6816</a>\\n          </div>\\n        </div>\\n      </div>\\n    </footer>\\n    \', escape=False)\n    response.write(\'\\n    <!-- The javascript =============================== -->\\n    <script src="\', escape=False)\n    response.write(URL(\'static\',\'js/bootstrap.bundle.min.js\'))\n    response.write(\'"></script>\\n    <script src="\', escape=False)\n    response.write(URL(\'static\',\'js/web2py-bootstrap4.js\'))\n    response.write(\'"></script>\\n    \', escape=False)\n    response.write(\'\\n    \', escape=False)\n    if response.google_analytics_id:\n        response.write(\'\\n    <!-- Analytics ==================================== -->\\n    <script src="\', escape=False)\n        response.write(URL(\'static\',\'js/analytics.min.js\'))\n        response.write(\'"></script>\\n    <script type="text/javascript">\\n      analytics.initialize({\\n      \\\'Google Analytics\\\':{trackingId:\\\'\', escape=False)\n        response.write(response.google_analytics_id)\n        response.write("\'}\\n      });\\n    </script>\\n    ", escape=False)\n        pass\n    response.write(\'\\n  </body>\\n</html>\\n\', escape=False)'
p7
sS'snapshot'
p8
(dp9
sS'traceback'
p10
S'None\n'
p11
s.